---
triple:          'arm64-apple-darwin'
binary-path:     "/Users/parkseonggeun/Desktop/스터디내용/2024_3_1_algorithm_study/2024_상반기_스터디/week3/output/BOJ_12869_phd0801"
relocations:
  - { offsetInCU: 0x3F, offset: 0x3F, size: 0x8, addend: 0x0, symName: _N, symObjAddr: 0x49DC0, symBinAddr: 0x100010008, symSize: 0x0 }
  - { offsetInCU: 0x5B, offset: 0x5B, size: 0x8, addend: 0x0, symName: _res, symObjAddr: 0x902C, symBinAddr: 0x100010000, symSize: 0x0 }
  - { offsetInCU: 0x70, offset: 0x70, size: 0x8, addend: 0x0, symName: _cnt, symObjAddr: 0x49DC4, symBinAddr: 0x10001000C, symSize: 0x0 }
  - { offsetInCU: 0x85, offset: 0x85, size: 0x8, addend: 0x0, symName: _vec, symObjAddr: 0x49DC8, symBinAddr: 0x100010010, symSize: 0x0 }
  - { offsetInCU: 0x6F92, offset: 0x6F92, size: 0x8, addend: 0x0, symName: __ZNSt3__124__put_character_sequenceB8ue170006IcNS_11char_traitsIcEEEERNS_13basic_ostreamIT_T0_EES7_PKS4_m, symObjAddr: 0x7924, symBinAddr: 0x10000A0E0, symSize: 0x1F4 }
  - { offsetInCU: 0x8C9A, offset: 0x8C9A, size: 0x8, addend: 0x0, symName: __ZNSt3__13minB8ue170006IiEERKT_S3_S3_, symObjAddr: 0x710, symBinAddr: 0x100002ECC, symSize: 0x2C }
  - { offsetInCU: 0x8CDD, offset: 0x8CDD, size: 0x8, addend: 0x0, symName: __ZNSt3__1neB8ue170006IPiEEbRKNS_11__wrap_iterIT_EES6_, symObjAddr: 0x7C4, symBinAddr: 0x100002F80, symSize: 0x34 }
  - { offsetInCU: 0x8D20, offset: 0x8D20, size: 0x8, addend: 0x0, symName: __ZNSt3__1lsB8ue170006INS_11char_traitsIcEEEERNS_13basic_ostreamIcT_EES6_PKc, symObjAddr: 0x810, symBinAddr: 0x100002FCC, symSize: 0x48 }
  - { offsetInCU: 0x8D66, offset: 0x8D66, size: 0x8, addend: 0x0, symName: __ZNSt3__116next_permutationB8ue170006INS_11__wrap_iterIPiEEEEbT_S4_, symObjAddr: 0x884, symBinAddr: 0x100003040, symSize: 0x40 }
  - { offsetInCU: 0x8DA9, offset: 0x8DA9, size: 0x8, addend: 0x0, symName: __ZNSt3__1neB8ue170006ERKNS_16__deque_iteratorINS_6vectorIiNS_9allocatorIiEEEEPS4_RS4_PS5_lLl170EEESA_, symObjAddr: 0x106C, symBinAddr: 0x100003828, symSize: 0x34 }
  - { offsetInCU: 0x8DE6, offset: 0x8DE6, size: 0x8, addend: 0x0, symName: __ZNSt3__1eqB8ue170006ERKNS_16__deque_iteratorINS_6vectorIiNS_9allocatorIiEEEEPS4_RS4_PS5_lLl170EEESA_, symObjAddr: 0x13C0, symBinAddr: 0x100003B7C, symSize: 0x30 }
  - { offsetInCU: 0x8E23, offset: 0x8E23, size: 0x8, addend: 0x0, symName: __ZNSt3__112__to_addressB8ue170006INS_6vectorIiNS_9allocatorIiEEEEEEPT_S6_, symObjAddr: 0x1A7C, symBinAddr: 0x100004238, symSize: 0x14 }
  - { offsetInCU: 0x8E58, offset: 0x8E58, size: 0x8, addend: 0x0, symName: __ZNSt3__130__libcpp_is_constant_evaluatedB8ue170006Ev, symObjAddr: 0x1C1C, symBinAddr: 0x1000043D8, symSize: 0xC }
  - { offsetInCU: 0x8E75, offset: 0x8E75, size: 0x8, addend: 0x0, symName: __ZNSt3__119__libcpp_deallocateB8ue170006EPvmm, symObjAddr: 0x1C28, symBinAddr: 0x1000043E4, symSize: 0x30 }
  - { offsetInCU: 0x8EBD, offset: 0x8EBD, size: 0x8, addend: 0x0, symName: __ZNSt3__127__do_deallocate_handle_sizeB8ue170006IJEEEvPvmDpT_, symObjAddr: 0x1C58, symBinAddr: 0x100004414, symSize: 0x28 }
  - { offsetInCU: 0x8EFB, offset: 0x8EFB, size: 0x8, addend: 0x0, symName: __ZNSt3__124__libcpp_operator_deleteB8ue170006IJPvEEEvDpT_, symObjAddr: 0x1C80, symBinAddr: 0x10000443C, symSize: 0x24 }
  - { offsetInCU: 0x8F30, offset: 0x8F30, size: 0x8, addend: 0x0, symName: __ZNSt3__112__to_addressB8ue170006IPNS_6vectorIiNS_9allocatorIiEEEEEEPT_S7_, symObjAddr: 0x1F0C, symBinAddr: 0x1000046C8, symSize: 0x14 }
  - { offsetInCU: 0x8F65, offset: 0x8F65, size: 0x8, addend: 0x0, symName: __ZNSt3__112__to_addressB8ue170006IiEEPT_S2_, symObjAddr: 0x24EC, symBinAddr: 0x100004CA8, symSize: 0x14 }
  - { offsetInCU: 0x8F9A, offset: 0x8F9A, size: 0x8, addend: 0x0, symName: __ZNSt3__13maxB8ue170006ImEERKT_S3_S3_, symObjAddr: 0x2C28, symBinAddr: 0x1000053E4, symSize: 0x2C }
  - { offsetInCU: 0x8FDD, offset: 0x8FDD, size: 0x8, addend: 0x0, symName: __ZNSt3__13minB8ue170006ImEERKT_S3_S3_, symObjAddr: 0x2C54, symBinAddr: 0x100005410, symSize: 0x2C }
  - { offsetInCU: 0x9221, offset: 0x9221, size: 0x8, addend: 0x0, symName: __ZNSt3__13minB8ue170006ImNS_6__lessIvvEEEERKT_S5_S5_T0_, symObjAddr: 0x2CE0, symBinAddr: 0x10000549C, symSize: 0x54 }
  - { offsetInCU: 0x92F1, offset: 0x92F1, size: 0x8, addend: 0x0, symName: __ZNSt3__120__throw_length_errorB8ue170006EPKc, symObjAddr: 0x2DBC, symBinAddr: 0x100005578, symSize: 0x64 }
  - { offsetInCU: 0x931B, offset: 0x931B, size: 0x8, addend: 0x0, symName: __ZNSt3__13maxB8ue170006ImNS_6__lessIvvEEEERKT_S5_S5_T0_, symObjAddr: 0x2EA0, symBinAddr: 0x10000565C, symSize: 0x54 }
  - { offsetInCU: 0x9375, offset: 0x9375, size: 0x8, addend: 0x0, symName: __ZNSt3__119__allocate_at_leastB8ue170006INS_9allocatorIiEEEENS_19__allocation_resultINS_16allocator_traitsIT_E7pointerEEERS5_m, symObjAddr: 0x3004, symBinAddr: 0x1000057C0, symSize: 0x40 }
  - { offsetInCU: 0x93B8, offset: 0x93B8, size: 0x8, addend: 0x0, symName: __ZNSt3__117__libcpp_allocateB8ue170006Emm, symObjAddr: 0x31B4, symBinAddr: 0x100005970, symSize: 0x28 }
  - { offsetInCU: 0x93F5, offset: 0x93F5, size: 0x8, addend: 0x0, symName: __ZNSt3__121__libcpp_operator_newB8ue170006IJmEEEPvDpT_, symObjAddr: 0x31DC, symBinAddr: 0x100005998, symSize: 0x24 }
  - { offsetInCU: 0x942E, offset: 0x942E, size: 0x8, addend: 0x0, symName: __ZNSt3__142__uninitialized_allocator_move_if_noexceptB8ue170006INS_9allocatorIiEENS_16reverse_iteratorIPiEES5_ivEET1_RT_T0_S9_S6_, symObjAddr: 0x3264, symBinAddr: 0x100005A20, symSize: 0xE8 }
  - { offsetInCU: 0x94AB, offset: 0x94AB, size: 0x8, addend: 0x0, symName: __ZNSt3__14swapB8ue170006IPiEEvRT_S3_, symObjAddr: 0x3398, symBinAddr: 0x100005B54, symSize: 0x3C }
  - { offsetInCU: 0x94FC, offset: 0x94FC, size: 0x8, addend: 0x0, symName: __ZNSt3__1neB8ue170006IPiS1_EEbRKNS_16reverse_iteratorIT_EERKNS2_IT0_EE, symObjAddr: 0x3480, symBinAddr: 0x100005C3C, symSize: 0x48 }
  - { offsetInCU: 0x956D, offset: 0x956D, size: 0x8, addend: 0x0, symName: __ZNSt3__114__construct_atB8ue170006IiJiEPiEEPT_S3_DpOT0_, symObjAddr: 0x34C8, symBinAddr: 0x100005C84, symSize: 0x2C }
  - { offsetInCU: 0x95DD, offset: 0x95DD, size: 0x8, addend: 0x0, symName: __ZNSt3__112__to_addressB8ue170006INS_16reverse_iteratorIPiEEvEEu7__decayIDTclsr19__to_address_helperIT_EE6__callclsr3stdE7declvalIRKS4_EEEEES6_, symObjAddr: 0x34F4, symBinAddr: 0x100005CB0, symSize: 0x24 }
  - { offsetInCU: 0x9613, offset: 0x9613, size: 0x8, addend: 0x0, symName: __ZNSt3__14moveB8ue170006INS_16reverse_iteratorIPiEES3_EET0_T_S5_S4_, symObjAddr: 0x3560, symBinAddr: 0x100005D1C, symSize: 0x78 }
  - { offsetInCU: 0x9696, offset: 0x9696, size: 0x8, addend: 0x0, symName: __ZNSt3__16__moveB8ue170006INS_17_ClassicAlgPolicyENS_16reverse_iteratorIPiEES4_S4_EENS_4pairIT0_T2_EES6_T1_S7_, symObjAddr: 0x3648, symBinAddr: 0x100005E04, symSize: 0x64 }
  - { offsetInCU: 0x9702, offset: 0x9702, size: 0x8, addend: 0x0, symName: __ZNSt3__123__dispatch_copy_or_moveB8ue170006INS_17_ClassicAlgPolicyENS_11__move_loopIS1_EENS_14__move_trivialENS_16reverse_iteratorIPiEES7_S7_EENS_4pairIT2_T4_EES9_T3_SA_, symObjAddr: 0x36AC, symBinAddr: 0x100005E68, symSize: 0x64 }
  - { offsetInCU: 0x9780, offset: 0x9780, size: 0x8, addend: 0x0, symName: __ZNSt3__121__unwrap_and_dispatchB8ue170006INS_10__overloadINS_11__move_loopINS_17_ClassicAlgPolicyEEENS_14__move_trivialEEENS_16reverse_iteratorIPiEES9_S9_Li0EEENS_4pairIT0_T2_EESB_T1_SC_, symObjAddr: 0x3710, symBinAddr: 0x100005ECC, symSize: 0x12C }
  - { offsetInCU: 0x9810, offset: 0x9810, size: 0x8, addend: 0x0, symName: __ZNSt3__114__unwrap_rangeB8ue170006INS_16reverse_iteratorIPiEES3_EENS_4pairIT0_S5_EET_S7_, symObjAddr: 0x383C, symBinAddr: 0x100005FF8, symSize: 0x84 }
  - { offsetInCU: 0x9964, offset: 0x9964, size: 0x8, addend: 0x0, symName: __ZNSt3__113__unwrap_iterB8ue170006INS_16reverse_iteratorIPiEENS_18__unwrap_iter_implIS3_Lb0EEELi0EEEDTclsrT0_8__unwrapclsr3stdE7declvalIT_EEEES7_, symObjAddr: 0x3960, symBinAddr: 0x10000611C, symSize: 0x44 }
  - { offsetInCU: 0x99A8, offset: 0x99A8, size: 0x8, addend: 0x0, symName: __ZNSt3__19make_pairB8ue170006INS_16reverse_iteratorIPiEES3_EENS_4pairINS_18__unwrap_ref_decayIT_E4typeENS5_IT0_E4typeEEEOS6_OS9_, symObjAddr: 0x39A4, symBinAddr: 0x100006160, symSize: 0x38 }
  - { offsetInCU: 0x99F7, offset: 0x99F7, size: 0x8, addend: 0x0, symName: __ZNSt3__114__rewrap_rangeB8ue170006INS_16reverse_iteratorIPiEES3_EET_S4_T0_, symObjAddr: 0x39DC, symBinAddr: 0x100006198, symSize: 0x5C }
  - { offsetInCU: 0x9A43, offset: 0x9A43, size: 0x8, addend: 0x0, symName: __ZNSt3__113__rewrap_iterB8ue170006INS_16reverse_iteratorIPiEES3_NS_18__unwrap_iter_implIS3_Lb0EEEEET_S6_T0_, symObjAddr: 0x3A38, symBinAddr: 0x1000061F4, symSize: 0x88 }
  - { offsetInCU: 0xA01E, offset: 0xA01E, size: 0x8, addend: 0x0, symName: __ZNSt3__14swapB8ue170006IPPNS_6vectorIiNS_9allocatorIiEEEEEEvRT_S8_, symObjAddr: 0x5474, symBinAddr: 0x100007C30, symSize: 0x3C }
  - { offsetInCU: 0xA06F, offset: 0xA06F, size: 0x8, addend: 0x0, symName: __ZNSt3__14moveB8ue170006IPPNS_6vectorIiNS_9allocatorIiEEEES6_EET0_T_S8_S7_, symObjAddr: 0x5558, symBinAddr: 0x100007D14, symSize: 0x40 }
  - { offsetInCU: 0xA0E5, offset: 0xA0E5, size: 0x8, addend: 0x0, symName: __ZNSt3__16__moveB8ue170006INS_17_ClassicAlgPolicyEPPNS_6vectorIiNS_9allocatorIiEEEES7_S7_EENS_4pairIT0_T2_EES9_T1_SA_, symObjAddr: 0x5660, symBinAddr: 0x100007E1C, symSize: 0x44 }
  - { offsetInCU: 0xA151, offset: 0xA151, size: 0x8, addend: 0x0, symName: __ZNSt3__123__dispatch_copy_or_moveB8ue170006INS_17_ClassicAlgPolicyENS_11__move_loopIS1_EENS_14__move_trivialEPPNS_6vectorIiNS_9allocatorIiEEEESA_SA_EENS_4pairIT2_T4_EESC_T3_SD_, symObjAddr: 0x56A4, symBinAddr: 0x100007E60, symSize: 0x44 }
  - { offsetInCU: 0xA1CF, offset: 0xA1CF, size: 0x8, addend: 0x0, symName: __ZNSt3__121__unwrap_and_dispatchB8ue170006INS_10__overloadINS_11__move_loopINS_17_ClassicAlgPolicyEEENS_14__move_trivialEEEPPNS_6vectorIiNS_9allocatorIiEEEESC_SC_Li0EEENS_4pairIT0_T2_EESE_T1_SF_, symObjAddr: 0x56E8, symBinAddr: 0x100007EA4, symSize: 0xB4 }
  - { offsetInCU: 0xA25D, offset: 0xA25D, size: 0x8, addend: 0x0, symName: __ZNSt3__114__unwrap_rangeB8ue170006IPPNS_6vectorIiNS_9allocatorIiEEEES6_EENS_4pairIT0_S8_EET_SA_, symObjAddr: 0x579C, symBinAddr: 0x100007F58, symSize: 0x60 }
  - { offsetInCU: 0xA39C, offset: 0xA39C, size: 0x8, addend: 0x0, symName: __ZNSt3__113__unwrap_iterB8ue170006IPPNS_6vectorIiNS_9allocatorIiEEEENS_18__unwrap_iter_implIS6_Lb1EEELi0EEEDTclsrT0_8__unwrapclsr3stdE7declvalIT_EEEESA_, symObjAddr: 0x5844, symBinAddr: 0x100008000, symSize: 0x24 }
  - { offsetInCU: 0xA3E0, offset: 0xA3E0, size: 0x8, addend: 0x0, symName: __ZNSt3__19make_pairB8ue170006IPPNS_6vectorIiNS_9allocatorIiEEEES6_EENS_4pairINS_18__unwrap_ref_decayIT_E4typeENS8_IT0_E4typeEEEOS9_OSC_, symObjAddr: 0x5868, symBinAddr: 0x100008024, symSize: 0x38 }
  - { offsetInCU: 0xA42F, offset: 0xA42F, size: 0x8, addend: 0x0, symName: __ZNSt3__114__rewrap_rangeB8ue170006IPPNS_6vectorIiNS_9allocatorIiEEEES6_EET_S7_T0_, symObjAddr: 0x58A0, symBinAddr: 0x10000805C, symSize: 0x2C }
  - { offsetInCU: 0xA47B, offset: 0xA47B, size: 0x8, addend: 0x0, symName: __ZNSt3__113__rewrap_iterB8ue170006IPPNS_6vectorIiNS_9allocatorIiEEEES6_NS_18__unwrap_iter_implIS6_Lb1EEEEET_S9_T0_, symObjAddr: 0x58CC, symBinAddr: 0x100008088, symSize: 0x50 }
  - { offsetInCU: 0xA4D0, offset: 0xA4D0, size: 0x8, addend: 0x0, symName: __ZNSt3__119__copy_trivial_implB8ue170006IPNS_6vectorIiNS_9allocatorIiEEEES5_EENS_4pairIPT_PT0_EES8_S8_SA_, symObjAddr: 0x591C, symBinAddr: 0x1000080D8, symSize: 0x80 }
  - { offsetInCU: 0xA538, offset: 0xA538, size: 0x8, addend: 0x0, symName: __ZNSt3__119__constexpr_memmoveB8ue170006IPNS_6vectorIiNS_9allocatorIiEEEES5_Li0EEEPT_S7_PT0_NS_15__element_countE, symObjAddr: 0x599C, symBinAddr: 0x100008158, symSize: 0xA0 }
  - { offsetInCU: 0xA5A6, offset: 0xA5A6, size: 0x8, addend: 0x0, symName: __ZNSt3__19make_pairB8ue170006IRPPNS_6vectorIiNS_9allocatorIiEEEES6_EENS_4pairINS_18__unwrap_ref_decayIT_E4typeENS9_IT0_E4typeEEEOSA_OSD_, symObjAddr: 0x5A3C, symBinAddr: 0x1000081F8, symSize: 0x38 }
  - { offsetInCU: 0xA648, offset: 0xA648, size: 0x8, addend: 0x0, symName: __ZNSt3__18distanceB8ue170006INS_13move_iteratorIPPNS_6vectorIiNS_9allocatorIiEEEEEEEENS_15iterator_traitsIT_E15difference_typeESA_SA_, symObjAddr: 0x5C3C, symBinAddr: 0x1000083F8, symSize: 0x3C }
  - { offsetInCU: 0xA68B, offset: 0xA68B, size: 0x8, addend: 0x0, symName: __ZNSt3__110__distanceB8ue170006INS_13move_iteratorIPPNS_6vectorIiNS_9allocatorIiEEEEEEEENS_15iterator_traitsIT_E15difference_typeESA_SA_NS_26random_access_iterator_tagE, symObjAddr: 0x5E40, symBinAddr: 0x1000085FC, symSize: 0x30 }
  - { offsetInCU: 0xA6D8, offset: 0xA6D8, size: 0x8, addend: 0x0, symName: __ZNSt3__1miB8ue170006IPPNS_6vectorIiNS_9allocatorIiEEEES6_EENS_13move_iteratorIT_E15difference_typeERKS9_RKNS7_IT0_EE, symObjAddr: 0x5E70, symBinAddr: 0x10000862C, symSize: 0x48 }
  - { offsetInCU: 0xA727, offset: 0xA727, size: 0x8, addend: 0x0, symName: __ZNSt3__113move_backwardB8ue170006IPPNS_6vectorIiNS_9allocatorIiEEEES6_EET0_T_S8_S7_, symObjAddr: 0x5FE0, symBinAddr: 0x10000879C, symSize: 0x40 }
  - { offsetInCU: 0xA781, offset: 0xA781, size: 0x8, addend: 0x0, symName: __ZNSt3__115__move_backwardB8ue170006INS_17_ClassicAlgPolicyEPPNS_6vectorIiNS_9allocatorIiEEEES7_S7_EENS_4pairIT0_T2_EES9_T1_SA_, symObjAddr: 0x6020, symBinAddr: 0x1000087DC, symSize: 0x44 }
  - { offsetInCU: 0xA7ED, offset: 0xA7ED, size: 0x8, addend: 0x0, symName: __ZNSt3__123__dispatch_copy_or_moveB8ue170006INS_17_ClassicAlgPolicyENS_20__move_backward_loopIS1_EENS_23__move_backward_trivialEPPNS_6vectorIiNS_9allocatorIiEEEESA_SA_EENS_4pairIT2_T4_EESC_T3_SD_, symObjAddr: 0x6064, symBinAddr: 0x100008820, symSize: 0x44 }
  - { offsetInCU: 0xA86B, offset: 0xA86B, size: 0x8, addend: 0x0, symName: __ZNSt3__121__unwrap_and_dispatchB8ue170006INS_10__overloadINS_20__move_backward_loopINS_17_ClassicAlgPolicyEEENS_23__move_backward_trivialEEEPPNS_6vectorIiNS_9allocatorIiEEEESC_SC_Li0EEENS_4pairIT0_T2_EESE_T1_SF_, symObjAddr: 0x60A8, symBinAddr: 0x100008864, symSize: 0xB4 }
  - { offsetInCU: 0xA93F, offset: 0xA93F, size: 0x8, addend: 0x0, symName: __ZNSt3__128__copy_backward_trivial_implB8ue170006IPNS_6vectorIiNS_9allocatorIiEEEES5_EENS_4pairIPT_PT0_EES8_S8_SA_, symObjAddr: 0x61A4, symBinAddr: 0x100008960, symSize: 0x90 }
  - { offsetInCU: 0xA9A7, offset: 0xA9A7, size: 0x8, addend: 0x0, symName: __ZNSt3__19make_pairB8ue170006IRPPNS_6vectorIiNS_9allocatorIiEEEES7_EENS_4pairINS_18__unwrap_ref_decayIT_E4typeENS9_IT0_E4typeEEEOSA_OSD_, symObjAddr: 0x6234, symBinAddr: 0x1000089F0, symSize: 0x38 }
  - { offsetInCU: 0xA9F6, offset: 0xA9F6, size: 0x8, addend: 0x0, symName: __ZNSt3__119__allocate_at_leastB8ue170006INS_9allocatorIPNS_6vectorIiNS1_IiEEEEEEEENS_19__allocation_resultINS_16allocator_traitsIT_E7pointerEEERS9_m, symObjAddr: 0x637C, symBinAddr: 0x100008B38, symSize: 0x40 }
  - { offsetInCU: 0xAA39, offset: 0xAA39, size: 0x8, addend: 0x0, symName: __ZNSt3__122__make_exception_guardB8ue170006INS_6vectorIiNS_9allocatorIiEEE16__destroy_vectorEEENS_28__exception_guard_exceptionsIT_EES7_, symObjAddr: 0x6C90, symBinAddr: 0x10000944C, symSize: 0x40 }
  - { offsetInCU: 0xAA6E, offset: 0xAA6E, size: 0x8, addend: 0x0, symName: __ZNSt3__130__uninitialized_allocator_copyB8ue170006INS_9allocatorIiEEPiS3_S3_EET2_RT_T0_T1_S4_, symObjAddr: 0x6EB0, symBinAddr: 0x10000966C, symSize: 0x80 }
  - { offsetInCU: 0xAB0B, offset: 0xAB0B, size: 0x8, addend: 0x0, symName: __ZNSt3__114__unwrap_rangeB8ue170006IPiS1_EENS_4pairIT0_S3_EET_S5_, symObjAddr: 0x6F30, symBinAddr: 0x1000096EC, symSize: 0x60 }
  - { offsetInCU: 0xAB57, offset: 0xAB57, size: 0x8, addend: 0x0, symName: __ZNSt3__135__uninitialized_allocator_copy_implB8ue170006INS_9allocatorIiEEPiS3_S3_EET2_RT_T0_T1_S4_, symObjAddr: 0x6F90, symBinAddr: 0x10000974C, symSize: 0xFC }
  - { offsetInCU: 0xABF5, offset: 0xABF5, size: 0x8, addend: 0x0, symName: __ZNSt3__113__unwrap_iterB8ue170006IPiNS_18__unwrap_iter_implIS1_Lb1EEELi0EEEDTclsrT0_8__unwrapclsr3stdE7declvalIT_EEEES5_, symObjAddr: 0x708C, symBinAddr: 0x100009848, symSize: 0x24 }
  - { offsetInCU: 0xAC39, offset: 0xAC39, size: 0x8, addend: 0x0, symName: __ZNSt3__113__rewrap_iterB8ue170006IPiS1_NS_18__unwrap_iter_implIS1_Lb1EEEEET_S4_T0_, symObjAddr: 0x70B0, symBinAddr: 0x10000986C, symSize: 0x50 }
  - { offsetInCU: 0xAC8E, offset: 0xAC8E, size: 0x8, addend: 0x0, symName: __ZNSt3__19make_pairB8ue170006IPiS1_EENS_4pairINS_18__unwrap_ref_decayIT_E4typeENS3_IT0_E4typeEEEOS4_OS7_, symObjAddr: 0x7100, symBinAddr: 0x1000098BC, symSize: 0x38 }
  - { offsetInCU: 0xAD8A, offset: 0xAD8A, size: 0x8, addend: 0x0, symName: __ZNSt3__122__make_exception_guardB8ue170006INS_29_AllocatorDestroyRangeReverseINS_9allocatorIiEEPiEEEENS_28__exception_guard_exceptionsIT_EES7_, symObjAddr: 0x71A8, symBinAddr: 0x100009964, symSize: 0x4C }
  - { offsetInCU: 0xADC0, offset: 0xADC0, size: 0x8, addend: 0x0, symName: __ZNSt3__119__allocator_destroyB8ue170006INS_9allocatorIiEENS_16reverse_iteratorIPiEES5_EEvRT_T0_T1_, symObjAddr: 0x7428, symBinAddr: 0x100009BE4, symSize: 0x70 }
  - { offsetInCU: 0xAE76, offset: 0xAE76, size: 0x8, addend: 0x0, symName: __ZNSt3__13minB8ue170006IiNS_6__lessIvvEEEERKT_S5_S5_T0_, symObjAddr: 0x77B8, symBinAddr: 0x100009F74, symSize: 0x54 }
  - { offsetInCU: 0xAED0, offset: 0xAED0, size: 0x8, addend: 0x0, symName: __ZNSt3__1eqB8ue170006IPiEEbRKNS_11__wrap_iterIT_EES6_, symObjAddr: 0x78C4, symBinAddr: 0x10000A080, symSize: 0x48 }
  - { offsetInCU: 0xAF13, offset: 0xAF13, size: 0x8, addend: 0x0, symName: __ZNSt3__116__pad_and_outputB8ue170006IcNS_11char_traitsIcEEEENS_19ostreambuf_iteratorIT_T0_EES6_PKS4_S8_S8_RNS_8ios_baseES4_, symObjAddr: 0x7B7C, symBinAddr: 0x10000A338, symSize: 0x248 }
  - { offsetInCU: 0xAFE2, offset: 0xAFE2, size: 0x8, addend: 0x0, symName: __ZNSt3__112__to_addressB8ue170006IKcEEPT_S3_, symObjAddr: 0x80EC, symBinAddr: 0x10000A8A8, symSize: 0x14 }
  - { offsetInCU: 0xB04A, offset: 0xB04A, size: 0x8, addend: 0x0, symName: __ZNSt3__19use_facetB8ue170006INS_5ctypeIcEEEERKT_RKNS_6localeE, symObjAddr: 0x83C4, symBinAddr: 0x10000AB80, symSize: 0x2C }
  - { offsetInCU: 0xB517, offset: 0xB517, size: 0x8, addend: 0x0, symName: __ZNSt3__118__constexpr_strlenB8ue170006EPKc, symObjAddr: 0x845C, symBinAddr: 0x10000AC18, symSize: 0x24 }
  - { offsetInCU: 0xB543, offset: 0xB543, size: 0x8, addend: 0x0, symName: __ZNSt3__116next_permutationB8ue170006INS_11__wrap_iterIPiEENS_6__lessIvvEEEEbT_S6_T0_, symObjAddr: 0x8480, symBinAddr: 0x10000AC3C, symSize: 0x50 }
  - { offsetInCU: 0xB59D, offset: 0xB59D, size: 0x8, addend: 0x0, symName: __ZNSt3__118__next_permutationB8ue170006INS_17_ClassicAlgPolicyERNS_6__lessIvvEENS_11__wrap_iterIPiEES7_EENS_4pairIT1_bEES9_T2_OT0_, symObjAddr: 0x84D0, symBinAddr: 0x10000AC8C, symSize: 0x1E8 }
  - { offsetInCU: 0xB70D, offset: 0xB70D, size: 0x8, addend: 0x0, symName: __ZNSt3__19__reverseB8ue170006INS_17_ClassicAlgPolicyENS_11__wrap_iterIPiEES4_EEvT0_T1_, symObjAddr: 0x8778, symBinAddr: 0x10000AF34, symSize: 0x3C }
  - { offsetInCU: 0xB75E, offset: 0xB75E, size: 0x8, addend: 0x0, symName: __ZNSt3__19iter_swapB8ue170006INS_11__wrap_iterIPiEES3_EEvT_T0_, symObjAddr: 0x87EC, symBinAddr: 0x10000AFA8, symSize: 0x50 }
  - { offsetInCU: 0xB7A6, offset: 0xB7A6, size: 0x8, addend: 0x0, symName: __ZNSt3__14swapB8ue170006IiEEvRT_S2_, symObjAddr: 0x883C, symBinAddr: 0x10000AFF8, symSize: 0x3C }
  - { offsetInCU: 0xB7F7, offset: 0xB7F7, size: 0x8, addend: 0x0, symName: __ZNSt3__114__reverse_implB8ue170006INS_17_ClassicAlgPolicyENS_11__wrap_iterIPiEEEEvT0_S5_NS_26random_access_iterator_tagE, symObjAddr: 0x8878, symBinAddr: 0x10000B034, symSize: 0x7C }
  - { offsetInCU: 0xB849, offset: 0xB849, size: 0x8, addend: 0x0, symName: __ZNSt3__1ltB8ue170006IPiEEbRKNS_11__wrap_iterIT_EES6_, symObjAddr: 0x88F4, symBinAddr: 0x10000B0B0, symSize: 0x48 }
  - { offsetInCU: 0xBAFB, offset: 0xBAFB, size: 0x8, addend: 0x0, symName: __ZSt28__throw_bad_array_new_lengthB8ue170006v, symObjAddr: 0x3180, symBinAddr: 0x10000593C, symSize: 0x34 }
  - { offsetInCU: 0xBCF8, offset: 0xBCF8, size: 0x8, addend: 0x0, symName: _v, symObjAddr: 0x49DE0, symBinAddr: 0x100010028, symSize: 0x0 }
  - { offsetInCU: 0xBD0D, offset: 0xBD0D, size: 0x8, addend: 0x0, symName: _visited, symObjAddr: 0x49DF8, symBinAddr: 0x100010040, symSize: 0x0 }
  - { offsetInCU: 0xC1B0, offset: 0xC1B0, size: 0x8, addend: 0x0, symName: __ZNSt3__16vectorIiNS_9allocatorIiEEE26__swap_out_circular_bufferERNS_14__split_bufferIiRS2_EE, symObjAddr: 0x2A5C, symBinAddr: 0x100005218, symSize: 0x110 }
  - { offsetInCU: 0xE713, offset: 0xE713, size: 0x8, addend: 0x0, symName: __ZNSt3__16vectorIiNS_9allocatorIiEEEC1B8ue170006Ev, symObjAddr: 0x0, symBinAddr: 0x1000027BC, symSize: 0x2C }
  - { offsetInCU: 0xE73D, offset: 0xE73D, size: 0x8, addend: 0x0, symName: __ZNSt3__16vectorIiNS_9allocatorIiEEED1B8ue170006Ev, symObjAddr: 0x2C, symBinAddr: 0x1000027E8, symSize: 0x2C }
  - { offsetInCU: 0xE766, offset: 0xE766, size: 0x8, addend: 0x0, symName: __Z3bfsv, symObjAddr: 0x58, symBinAddr: 0x100002814, symSize: 0x52C }
  - { offsetInCU: 0xE824, offset: 0xE824, size: 0x8, addend: 0x0, symName: __ZNSt3__16vectorIiNS_9allocatorIiEEE9push_backB8ue170006EOi, symObjAddr: 0x584, symBinAddr: 0x100002D40, symSize: 0x6C }
  - { offsetInCU: 0xE888, offset: 0xE888, size: 0x8, addend: 0x0, symName: __ZNSt3__15queueINS_6vectorIiNS_9allocatorIiEEEENS_5dequeIS4_NS2_IS4_EEEEEC1B8ue170006Ev, symObjAddr: 0x5F0, symBinAddr: 0x100002DAC, symSize: 0x2C }
  - { offsetInCU: 0xE8B2, offset: 0xE8B2, size: 0x8, addend: 0x0, symName: __ZNSt3__15queueINS_6vectorIiNS_9allocatorIiEEEENS_5dequeIS4_NS2_IS4_EEEEE4pushB8ue170006ERKS4_, symObjAddr: 0x61C, symBinAddr: 0x100002DD8, symSize: 0x2C }
  - { offsetInCU: 0xE8E7, offset: 0xE8E7, size: 0x8, addend: 0x0, symName: __ZNKSt3__15queueINS_6vectorIiNS_9allocatorIiEEEENS_5dequeIS4_NS2_IS4_EEEEE5emptyB8ue170006Ev, symObjAddr: 0x648, symBinAddr: 0x100002E04, symSize: 0x28 }
  - { offsetInCU: 0xE90D, offset: 0xE90D, size: 0x8, addend: 0x0, symName: __ZNSt3__15queueINS_6vectorIiNS_9allocatorIiEEEENS_5dequeIS4_NS2_IS4_EEEEE5frontB8ue170006Ev, symObjAddr: 0x670, symBinAddr: 0x100002E2C, symSize: 0x24 }
  - { offsetInCU: 0xE933, offset: 0xE933, size: 0x8, addend: 0x0, symName: __ZNSt3__16vectorIiNS_9allocatorIiEEEC1ERKS3_, symObjAddr: 0x694, symBinAddr: 0x100002E50, symSize: 0x34 }
  - { offsetInCU: 0xE96E, offset: 0xE96E, size: 0x8, addend: 0x0, symName: __ZNSt3__15queueINS_6vectorIiNS_9allocatorIiEEEENS_5dequeIS4_NS2_IS4_EEEEE3popB8ue170006Ev, symObjAddr: 0x6C8, symBinAddr: 0x100002E84, symSize: 0x24 }
  - { offsetInCU: 0xE994, offset: 0xE994, size: 0x8, addend: 0x0, symName: __ZNSt3__16vectorIiNS_9allocatorIiEEEixB8ue170006Em, symObjAddr: 0x6EC, symBinAddr: 0x100002EA8, symSize: 0x24 }
  - { offsetInCU: 0xE9CB, offset: 0xE9CB, size: 0x8, addend: 0x0, symName: __ZNKSt3__16vectorIiNS_9allocatorIiEEE4sizeB8ue170006Ev, symObjAddr: 0x73C, symBinAddr: 0x100002EF8, symSize: 0x28 }
  - { offsetInCU: 0xE9F1, offset: 0xE9F1, size: 0x8, addend: 0x0, symName: __ZNSt3__16vectorIiNS_9allocatorIiEEE5beginB8ue170006Ev, symObjAddr: 0x764, symBinAddr: 0x100002F20, symSize: 0x30 }
  - { offsetInCU: 0xEA19, offset: 0xEA19, size: 0x8, addend: 0x0, symName: __ZNSt3__16vectorIiNS_9allocatorIiEEE3endB8ue170006Ev, symObjAddr: 0x794, symBinAddr: 0x100002F50, symSize: 0x30 }
  - { offsetInCU: 0xEA41, offset: 0xEA41, size: 0x8, addend: 0x0, symName: __ZNKSt3__111__wrap_iterIPiEdeB8ue170006Ev, symObjAddr: 0x7F8, symBinAddr: 0x100002FB4, symSize: 0x18 }
  - { offsetInCU: 0xEA67, offset: 0xEA67, size: 0x8, addend: 0x0, symName: __ZNSt3__111__wrap_iterIPiEppB8ue170006Ev, symObjAddr: 0x858, symBinAddr: 0x100003014, symSize: 0x20 }
  - { offsetInCU: 0xEA8D, offset: 0xEA8D, size: 0x8, addend: 0x0, symName: __ZNSt3__15queueINS_6vectorIiNS_9allocatorIiEEEENS_5dequeIS4_NS2_IS4_EEEEED1Ev, symObjAddr: 0x8C4, symBinAddr: 0x100003080, symSize: 0x2C }
  - { offsetInCU: 0xEABA, offset: 0xEABA, size: 0x8, addend: 0x0, symName: _main, symObjAddr: 0x8F0, symBinAddr: 0x1000030AC, symSize: 0x130 }
  - { offsetInCU: 0xEB0D, offset: 0xEB0D, size: 0x8, addend: 0x0, symName: __ZNSt3__16vectorIiNS_9allocatorIiEEE9push_backB8ue170006ERKi, symObjAddr: 0xA20, symBinAddr: 0x1000031DC, symSize: 0x6C }
  - { offsetInCU: 0xEB44, offset: 0xEB44, size: 0x8, addend: 0x0, symName: __ZNSt3__15queueINS_6vectorIiNS_9allocatorIiEEEENS_5dequeIS4_NS2_IS4_EEEEED2Ev, symObjAddr: 0xA8C, symBinAddr: 0x100003248, symSize: 0x2C }
  - { offsetInCU: 0xEB71, offset: 0xEB71, size: 0x8, addend: 0x0, symName: __ZNSt3__15dequeINS_6vectorIiNS_9allocatorIiEEEENS2_IS4_EEED1B8ue170006Ev, symObjAddr: 0xAB8, symBinAddr: 0x100003274, symSize: 0x2C }
  - { offsetInCU: 0xEB9B, offset: 0xEB9B, size: 0x8, addend: 0x0, symName: __ZNSt3__15dequeINS_6vectorIiNS_9allocatorIiEEEENS2_IS4_EEED2B8ue170006Ev, symObjAddr: 0xAE4, symBinAddr: 0x1000032A0, symSize: 0xA4 }
  - { offsetInCU: 0xEBF1, offset: 0xEBF1, size: 0x8, addend: 0x0, symName: __ZNSt3__15dequeINS_6vectorIiNS_9allocatorIiEEEENS2_IS4_EEE5clearEv, symObjAddr: 0xB88, symBinAddr: 0x100003344, symSize: 0x1A8 }
  - { offsetInCU: 0xEC54, offset: 0xEC54, size: 0x8, addend: 0x0, symName: __ZNKSt3__15dequeINS_6vectorIiNS_9allocatorIiEEEENS2_IS4_EEE17__annotate_deleteB8ue170006Ev, symObjAddr: 0xD30, symBinAddr: 0x1000034EC, symSize: 0xEC }
  - { offsetInCU: 0xEC97, offset: 0xEC97, size: 0x8, addend: 0x0, symName: __ZNSt3__114__split_bufferIPNS_6vectorIiNS_9allocatorIiEEEENS2_IS5_EEE5beginB8ue170006Ev, symObjAddr: 0xE1C, symBinAddr: 0x1000035D8, symSize: 0x18 }
  - { offsetInCU: 0xECBD, offset: 0xECBD, size: 0x8, addend: 0x0, symName: __ZNSt3__114__split_bufferIPNS_6vectorIiNS_9allocatorIiEEEENS2_IS5_EEE3endB8ue170006Ev, symObjAddr: 0xE34, symBinAddr: 0x1000035F0, symSize: 0x18 }
  - { offsetInCU: 0xECE3, offset: 0xECE3, size: 0x8, addend: 0x0, symName: __ZNSt3__116allocator_traitsINS_9allocatorINS_6vectorIiNS1_IiEEEEEEE10deallocateB8ue170006ERS5_PS4_m, symObjAddr: 0xE4C, symBinAddr: 0x100003608, symSize: 0x34 }
  - { offsetInCU: 0xED25, offset: 0xED25, size: 0x8, addend: 0x0, symName: __ZNSt3__15dequeINS_6vectorIiNS_9allocatorIiEEEENS2_IS4_EEE7__allocB8ue170006Ev, symObjAddr: 0xE80, symBinAddr: 0x10000363C, symSize: 0x28 }
  - { offsetInCU: 0xED4B, offset: 0xED4B, size: 0x8, addend: 0x0, symName: __ZNSt3__114__split_bufferIPNS_6vectorIiNS_9allocatorIiEEEENS2_IS5_EEED1Ev, symObjAddr: 0xEA8, symBinAddr: 0x100003664, symSize: 0x2C }
  - { offsetInCU: 0xED77, offset: 0xED77, size: 0x8, addend: 0x0, symName: __ZNSt3__15dequeINS_6vectorIiNS_9allocatorIiEEEENS2_IS4_EEE5beginB8ue170006Ev, symObjAddr: 0xED4, symBinAddr: 0x100003690, symSize: 0xD4 }
  - { offsetInCU: 0xEDAC, offset: 0xEDAC, size: 0x8, addend: 0x0, symName: __ZNSt3__15dequeINS_6vectorIiNS_9allocatorIiEEEENS2_IS4_EEE3endB8ue170006Ev, symObjAddr: 0xFA8, symBinAddr: 0x100003764, symSize: 0xC4 }
  - { offsetInCU: 0xEDF0, offset: 0xEDF0, size: 0x8, addend: 0x0, symName: __ZNSt3__116allocator_traitsINS_9allocatorINS_6vectorIiNS1_IiEEEEEEE7destroyB8ue170006IS4_vEEvRS5_PT_, symObjAddr: 0x10A0, symBinAddr: 0x10000385C, symSize: 0x2C }
  - { offsetInCU: 0xEE2D, offset: 0xEE2D, size: 0x8, addend: 0x0, symName: __ZNKSt3__116__deque_iteratorINS_6vectorIiNS_9allocatorIiEEEEPS4_RS4_PS5_lLl170EEdeB8ue170006Ev, symObjAddr: 0x10CC, symBinAddr: 0x100003888, symSize: 0x18 }
  - { offsetInCU: 0xEE53, offset: 0xEE53, size: 0x8, addend: 0x0, symName: __ZNSt3__116__deque_iteratorINS_6vectorIiNS_9allocatorIiEEEEPS4_RS4_PS5_lLl170EEppB8ue170006Ev, symObjAddr: 0x10E4, symBinAddr: 0x1000038A0, symSize: 0x70 }
  - { offsetInCU: 0xEE79, offset: 0xEE79, size: 0x8, addend: 0x0, symName: __ZNSt3__15dequeINS_6vectorIiNS_9allocatorIiEEEENS2_IS4_EEE6__sizeB8ue170006Ev, symObjAddr: 0x1154, symBinAddr: 0x100003910, symSize: 0x28 }
  - { offsetInCU: 0xEE9F, offset: 0xEE9F, size: 0x8, addend: 0x0, symName: __ZNKSt3__114__split_bufferIPNS_6vectorIiNS_9allocatorIiEEEENS2_IS5_EEE4sizeB8ue170006Ev, symObjAddr: 0x117C, symBinAddr: 0x100003938, symSize: 0x28 }
  - { offsetInCU: 0xEEC5, offset: 0xEEC5, size: 0x8, addend: 0x0, symName: __ZNSt3__114__split_bufferIPNS_6vectorIiNS_9allocatorIiEEEENS2_IS5_EEE5frontB8ue170006Ev, symObjAddr: 0x11A4, symBinAddr: 0x100003960, symSize: 0x18 }
  - { offsetInCU: 0xEEEB, offset: 0xEEEB, size: 0x8, addend: 0x0, symName: __ZNSt3__114__split_bufferIPNS_6vectorIiNS_9allocatorIiEEEENS2_IS5_EEE9pop_frontB8ue170006Ev, symObjAddr: 0x11BC, symBinAddr: 0x100003978, symSize: 0x2C }
  - { offsetInCU: 0xEF11, offset: 0xEF11, size: 0x8, addend: 0x0, symName: __ZNKSt3__15dequeINS_6vectorIiNS_9allocatorIiEEEENS2_IS4_EEE14__annotate_newB8ue170006Em, symObjAddr: 0x11E8, symBinAddr: 0x1000039A4, symSize: 0xC0 }
  - { offsetInCU: 0xEF46, offset: 0xEF46, size: 0x8, addend: 0x0, symName: __ZNKSt3__114__split_bufferIPNS_6vectorIiNS_9allocatorIiEEEENS2_IS5_EEE5emptyB8ue170006Ev, symObjAddr: 0x12A8, symBinAddr: 0x100003A64, symSize: 0x28 }
  - { offsetInCU: 0xEF6C, offset: 0xEF6C, size: 0x8, addend: 0x0, symName: __ZNSt3__116__deque_iteratorINS_6vectorIiNS_9allocatorIiEEEEPS4_RS4_PS5_lLl170EEC1B8ue170006ES7_S5_, symObjAddr: 0x12D0, symBinAddr: 0x100003A8C, symSize: 0x3C }
  - { offsetInCU: 0xEFB4, offset: 0xEFB4, size: 0x8, addend: 0x0, symName: __ZNSt3__116__deque_iteratorINS_6vectorIiNS_9allocatorIiEEEEPS4_RS4_PS5_lLl170EEC2B8ue170006ES7_S5_, symObjAddr: 0x130C, symBinAddr: 0x100003AC8, symSize: 0x2C }
  - { offsetInCU: 0xEFFC, offset: 0xEFFC, size: 0x8, addend: 0x0, symName: __ZNKSt3__15dequeINS_6vectorIiNS_9allocatorIiEEEENS2_IS4_EEE4sizeB8ue170006Ev, symObjAddr: 0x1338, symBinAddr: 0x100003AF4, symSize: 0x28 }
  - { offsetInCU: 0xF022, offset: 0xF022, size: 0x8, addend: 0x0, symName: __ZNKSt3__15dequeINS_6vectorIiNS_9allocatorIiEEEENS2_IS4_EEE6__sizeB8ue170006Ev, symObjAddr: 0x1360, symBinAddr: 0x100003B1C, symSize: 0x28 }
  - { offsetInCU: 0xF048, offset: 0xF048, size: 0x8, addend: 0x0, symName: __ZNKSt3__117__compressed_pairImNS_9allocatorINS_6vectorIiNS1_IiEEEEEEE5firstB8ue170006Ev, symObjAddr: 0x1388, symBinAddr: 0x100003B44, symSize: 0x24 }
  - { offsetInCU: 0xF06E, offset: 0xF06E, size: 0x8, addend: 0x0, symName: __ZNKSt3__122__compressed_pair_elemImLi0ELb0EE5__getB8ue170006Ev, symObjAddr: 0x13AC, symBinAddr: 0x100003B68, symSize: 0x14 }
  - { offsetInCU: 0xF094, offset: 0xF094, size: 0x8, addend: 0x0, symName: __ZNSt3__19allocatorINS_6vectorIiNS0_IiEEEEE7destroyB8ue170006EPS3_, symObjAddr: 0x13F0, symBinAddr: 0x100003BAC, symSize: 0x28 }
  - { offsetInCU: 0xF0C8, offset: 0xF0C8, size: 0x8, addend: 0x0, symName: __ZNSt3__117__compressed_pairImNS_9allocatorINS_6vectorIiNS1_IiEEEEEEE5firstB8ue170006Ev, symObjAddr: 0x1418, symBinAddr: 0x100003BD4, symSize: 0x24 }
  - { offsetInCU: 0xF0EE, offset: 0xF0EE, size: 0x8, addend: 0x0, symName: __ZNSt3__122__compressed_pair_elemImLi0ELb0EE5__getB8ue170006Ev, symObjAddr: 0x143C, symBinAddr: 0x100003BF8, symSize: 0x14 }
  - { offsetInCU: 0xF114, offset: 0xF114, size: 0x8, addend: 0x0, symName: __ZNSt3__114__split_bufferIPNS_6vectorIiNS_9allocatorIiEEEENS2_IS5_EEE19__destruct_at_beginB8ue170006EPS5_, symObjAddr: 0x1450, symBinAddr: 0x100003C0C, symSize: 0x2C }
  - { offsetInCU: 0xF148, offset: 0xF148, size: 0x8, addend: 0x0, symName: __ZNSt3__114__split_bufferIPNS_6vectorIiNS_9allocatorIiEEEENS2_IS5_EEE19__destruct_at_beginEPS5_NS_17integral_constantIbLb1EEE, symObjAddr: 0x147C, symBinAddr: 0x100003C38, symSize: 0x20 }
  - { offsetInCU: 0xF188, offset: 0xF188, size: 0x8, addend: 0x0, symName: __ZNKSt3__15dequeINS_6vectorIiNS_9allocatorIiEEEENS2_IS4_EEE18__annotate_from_toB8ue170006EmmNS6_22__asan_annotation_typeENS6_23__asan_annotation_placeE, symObjAddr: 0x149C, symBinAddr: 0x100003C58, symSize: 0x598 }
  - { offsetInCU: 0xF344, offset: 0xF344, size: 0x8, addend: 0x0, symName: __ZNKSt3__114__split_bufferIPNS_6vectorIiNS_9allocatorIiEEEENS2_IS5_EEE5beginB8ue170006Ev, symObjAddr: 0x1A34, symBinAddr: 0x1000041F0, symSize: 0x18 }
  - { offsetInCU: 0xF36A, offset: 0xF36A, size: 0x8, addend: 0x0, symName: __ZNKSt3__15dequeINS_6vectorIiNS_9allocatorIiEEEENS2_IS4_EEE5emptyB8ue170006Ev, symObjAddr: 0x1A4C, symBinAddr: 0x100004208, symSize: 0x30 }
  - { offsetInCU: 0xF390, offset: 0xF390, size: 0x8, addend: 0x0, symName: __ZNKSt3__15dequeINS_6vectorIiNS_9allocatorIiEEEENS2_IS4_EEE44__annotate_double_ended_contiguous_containerB8ue170006EPKvS8_S8_S8_S8_S8_, symObjAddr: 0x1A90, symBinAddr: 0x10000424C, symSize: 0x28 }
  - { offsetInCU: 0xF3F8, offset: 0xF3F8, size: 0x8, addend: 0x0, symName: __ZNKSt3__15dequeINS_6vectorIiNS_9allocatorIiEEEENS2_IS4_EEE22__annotate_whole_blockB8ue170006EmNS6_22__asan_annotation_typeE, symObjAddr: 0x1AB8, symBinAddr: 0x100004274, symSize: 0xAC }
  - { offsetInCU: 0xF469, offset: 0xF469, size: 0x8, addend: 0x0, symName: __ZNKSt3__15dequeINS_6vectorIiNS_9allocatorIiEEEENS2_IS4_EEE23__annotate_poison_blockB8ue170006EPKvS8_, symObjAddr: 0x1B64, symBinAddr: 0x100004320, symSize: 0x44 }
  - { offsetInCU: 0xF4AD, offset: 0xF4AD, size: 0x8, addend: 0x0, symName: __ZNSt3__19allocatorINS_6vectorIiNS0_IiEEEEE10deallocateB8ue170006EPS3_m, symObjAddr: 0x1BA8, symBinAddr: 0x100004364, symSize: 0x74 }
  - { offsetInCU: 0xF4EF, offset: 0xF4EF, size: 0x8, addend: 0x0, symName: __ZNSt3__117__compressed_pairImNS_9allocatorINS_6vectorIiNS1_IiEEEEEEE6secondB8ue170006Ev, symObjAddr: 0x1CA4, symBinAddr: 0x100004460, symSize: 0x24 }
  - { offsetInCU: 0xF515, offset: 0xF515, size: 0x8, addend: 0x0, symName: __ZNSt3__122__compressed_pair_elemINS_9allocatorINS_6vectorIiNS1_IiEEEEEELi1ELb1EE5__getB8ue170006Ev, symObjAddr: 0x1CC8, symBinAddr: 0x100004484, symSize: 0x14 }
  - { offsetInCU: 0xF53B, offset: 0xF53B, size: 0x8, addend: 0x0, symName: __ZNSt3__114__split_bufferIPNS_6vectorIiNS_9allocatorIiEEEENS2_IS5_EEED2Ev, symObjAddr: 0x1CDC, symBinAddr: 0x100004498, symSize: 0x80 }
  - { offsetInCU: 0xF567, offset: 0xF567, size: 0x8, addend: 0x0, symName: __ZNSt3__114__split_bufferIPNS_6vectorIiNS_9allocatorIiEEEENS2_IS5_EEE5clearB8ue170006Ev, symObjAddr: 0x1D5C, symBinAddr: 0x100004518, symSize: 0x28 }
  - { offsetInCU: 0xF58D, offset: 0xF58D, size: 0x8, addend: 0x0, symName: __ZNSt3__116allocator_traitsINS_9allocatorIPNS_6vectorIiNS1_IiEEEEEEE10deallocateB8ue170006ERS6_PS5_m, symObjAddr: 0x1D84, symBinAddr: 0x100004540, symSize: 0x34 }
  - { offsetInCU: 0xF5CF, offset: 0xF5CF, size: 0x8, addend: 0x0, symName: __ZNSt3__114__split_bufferIPNS_6vectorIiNS_9allocatorIiEEEENS2_IS5_EEE7__allocB8ue170006Ev, symObjAddr: 0x1DB8, symBinAddr: 0x100004574, symSize: 0x28 }
  - { offsetInCU: 0xF5F5, offset: 0xF5F5, size: 0x8, addend: 0x0, symName: __ZNKSt3__114__split_bufferIPNS_6vectorIiNS_9allocatorIiEEEENS2_IS5_EEE8capacityB8ue170006Ev, symObjAddr: 0x1DE0, symBinAddr: 0x10000459C, symSize: 0x40 }
  - { offsetInCU: 0xF61B, offset: 0xF61B, size: 0x8, addend: 0x0, symName: __ZNSt3__114__split_bufferIPNS_6vectorIiNS_9allocatorIiEEEENS2_IS5_EEE17__destruct_at_endB8ue170006EPS5_, symObjAddr: 0x1E20, symBinAddr: 0x1000045DC, symSize: 0x2C }
  - { offsetInCU: 0xF64F, offset: 0xF64F, size: 0x8, addend: 0x0, symName: __ZNSt3__114__split_bufferIPNS_6vectorIiNS_9allocatorIiEEEENS2_IS5_EEE17__destruct_at_endB8ue170006EPS5_NS_17integral_constantIbLb0EEE, symObjAddr: 0x1E4C, symBinAddr: 0x100004608, symSize: 0x94 }
  - { offsetInCU: 0xF68F, offset: 0xF68F, size: 0x8, addend: 0x0, symName: __ZNSt3__116allocator_traitsINS_9allocatorIPNS_6vectorIiNS1_IiEEEEEEE7destroyB8ue170006IS5_vEEvRS6_PT_, symObjAddr: 0x1EE0, symBinAddr: 0x10000469C, symSize: 0x2C }
  - { offsetInCU: 0xF6CC, offset: 0xF6CC, size: 0x8, addend: 0x0, symName: __ZNSt3__19allocatorIPNS_6vectorIiNS0_IiEEEEE7destroyB8ue170006EPS4_, symObjAddr: 0x1F20, symBinAddr: 0x1000046DC, symSize: 0x14 }
  - { offsetInCU: 0xF700, offset: 0xF700, size: 0x8, addend: 0x0, symName: __ZNSt3__19allocatorIPNS_6vectorIiNS0_IiEEEEE10deallocateB8ue170006EPS4_m, symObjAddr: 0x1F34, symBinAddr: 0x1000046F0, symSize: 0x70 }
  - { offsetInCU: 0xF742, offset: 0xF742, size: 0x8, addend: 0x0, symName: __ZNSt3__117__compressed_pairIPPNS_6vectorIiNS_9allocatorIiEEEENS2_IS5_EEE6secondB8ue170006Ev, symObjAddr: 0x1FA4, symBinAddr: 0x100004760, symSize: 0x24 }
  - { offsetInCU: 0xF768, offset: 0xF768, size: 0x8, addend: 0x0, symName: __ZNSt3__122__compressed_pair_elemINS_9allocatorIPNS_6vectorIiNS1_IiEEEEEELi1ELb1EE5__getB8ue170006Ev, symObjAddr: 0x1FC8, symBinAddr: 0x100004784, symSize: 0x14 }
  - { offsetInCU: 0xF78E, offset: 0xF78E, size: 0x8, addend: 0x0, symName: __ZNKSt3__114__split_bufferIPNS_6vectorIiNS_9allocatorIiEEEENS2_IS5_EEE9__end_capB8ue170006Ev, symObjAddr: 0x1FDC, symBinAddr: 0x100004798, symSize: 0x28 }
  - { offsetInCU: 0xF7B4, offset: 0xF7B4, size: 0x8, addend: 0x0, symName: __ZNKSt3__117__compressed_pairIPPNS_6vectorIiNS_9allocatorIiEEEENS2_IS5_EEE5firstB8ue170006Ev, symObjAddr: 0x2004, symBinAddr: 0x1000047C0, symSize: 0x24 }
  - { offsetInCU: 0xF7DA, offset: 0xF7DA, size: 0x8, addend: 0x0, symName: __ZNKSt3__122__compressed_pair_elemIPPNS_6vectorIiNS_9allocatorIiEEEELi0ELb0EE5__getB8ue170006Ev, symObjAddr: 0x2028, symBinAddr: 0x1000047E4, symSize: 0x14 }
  - { offsetInCU: 0xF800, offset: 0xF800, size: 0x8, addend: 0x0, symName: __ZNSt3__16vectorIiNS_9allocatorIiEEEC2B8ue170006Ev, symObjAddr: 0x203C, symBinAddr: 0x1000047F8, symSize: 0x44 }
  - { offsetInCU: 0xF834, offset: 0xF834, size: 0x8, addend: 0x0, symName: __ZNSt3__117__compressed_pairIPiNS_9allocatorIiEEEC1B8ue170006IDnNS_18__default_init_tagEEEOT_OT0_, symObjAddr: 0x2080, symBinAddr: 0x10000483C, symSize: 0x3C }
  - { offsetInCU: 0xF88C, offset: 0xF88C, size: 0x8, addend: 0x0, symName: __ZNSt3__117__compressed_pairIPiNS_9allocatorIiEEEC2B8ue170006IDnNS_18__default_init_tagEEEOT_OT0_, symObjAddr: 0x20BC, symBinAddr: 0x100004878, symSize: 0x40 }
  - { offsetInCU: 0xF8E4, offset: 0xF8E4, size: 0x8, addend: 0x0, symName: __ZNSt3__122__compressed_pair_elemIPiLi0ELb0EEC2B8ue170006IDnvEEOT_, symObjAddr: 0x20FC, symBinAddr: 0x1000048B8, symSize: 0x1C }
  - { offsetInCU: 0xF926, offset: 0xF926, size: 0x8, addend: 0x0, symName: __ZNSt3__122__compressed_pair_elemINS_9allocatorIiEELi1ELb1EEC2B8ue170006ENS_18__default_init_tagE, symObjAddr: 0x2118, symBinAddr: 0x1000048D4, symSize: 0x2C }
  - { offsetInCU: 0xF95A, offset: 0xF95A, size: 0x8, addend: 0x0, symName: __ZNSt3__19allocatorIiEC2B8ue170006Ev, symObjAddr: 0x2144, symBinAddr: 0x100004900, symSize: 0x2C }
  - { offsetInCU: 0xF984, offset: 0xF984, size: 0x8, addend: 0x0, symName: __ZNSt3__116__non_trivial_ifILb1ENS_9allocatorIiEEEC2B8ue170006Ev, symObjAddr: 0x2170, symBinAddr: 0x10000492C, symSize: 0x14 }
  - { offsetInCU: 0xF9AE, offset: 0xF9AE, size: 0x8, addend: 0x0, symName: __ZNSt3__16vectorIiNS_9allocatorIiEEED2B8ue170006Ev, symObjAddr: 0x2184, symBinAddr: 0x100004940, symSize: 0x3C }
  - { offsetInCU: 0xF9D8, offset: 0xF9D8, size: 0x8, addend: 0x0, symName: __ZNSt3__16vectorIiNS_9allocatorIiEEE16__destroy_vectorC1B8ue170006ERS3_, symObjAddr: 0x21C0, symBinAddr: 0x10000497C, symSize: 0x34 }
  - { offsetInCU: 0xFA11, offset: 0xFA11, size: 0x8, addend: 0x0, symName: __ZNSt3__16vectorIiNS_9allocatorIiEEE16__destroy_vectorclB8ue170006Ev, symObjAddr: 0x21F4, symBinAddr: 0x1000049B0, symSize: 0x90 }
  - { offsetInCU: 0xFA37, offset: 0xFA37, size: 0x8, addend: 0x0, symName: __ZNSt3__16vectorIiNS_9allocatorIiEEE16__destroy_vectorC2B8ue170006ERS3_, symObjAddr: 0x2284, symBinAddr: 0x100004A40, symSize: 0x20 }
  - { offsetInCU: 0xFA70, offset: 0xFA70, size: 0x8, addend: 0x0, symName: __ZNSt3__16vectorIiNS_9allocatorIiEEE7__clearB8ue170006Ev, symObjAddr: 0x22A4, symBinAddr: 0x100004A60, symSize: 0x28 }
  - { offsetInCU: 0xFA96, offset: 0xFA96, size: 0x8, addend: 0x0, symName: __ZNKSt3__16vectorIiNS_9allocatorIiEEE17__annotate_deleteB8ue170006Ev, symObjAddr: 0x22CC, symBinAddr: 0x100004A88, symSize: 0xB8 }
  - { offsetInCU: 0xFABC, offset: 0xFABC, size: 0x8, addend: 0x0, symName: __ZNSt3__116allocator_traitsINS_9allocatorIiEEE10deallocateB8ue170006ERS2_Pim, symObjAddr: 0x2384, symBinAddr: 0x100004B40, symSize: 0x34 }
  - { offsetInCU: 0xFAFE, offset: 0xFAFE, size: 0x8, addend: 0x0, symName: __ZNSt3__16vectorIiNS_9allocatorIiEEE7__allocB8ue170006Ev, symObjAddr: 0x23B8, symBinAddr: 0x100004B74, symSize: 0x28 }
  - { offsetInCU: 0xFB24, offset: 0xFB24, size: 0x8, addend: 0x0, symName: __ZNKSt3__16vectorIiNS_9allocatorIiEEE8capacityB8ue170006Ev, symObjAddr: 0x23E0, symBinAddr: 0x100004B9C, symSize: 0x40 }
  - { offsetInCU: 0xFB4A, offset: 0xFB4A, size: 0x8, addend: 0x0, symName: __ZNSt3__16vectorIiNS_9allocatorIiEEE22__base_destruct_at_endB8ue170006EPi, symObjAddr: 0x2420, symBinAddr: 0x100004BDC, symSize: 0xA0 }
  - { offsetInCU: 0xFB8E, offset: 0xFB8E, size: 0x8, addend: 0x0, symName: __ZNSt3__116allocator_traitsINS_9allocatorIiEEE7destroyB8ue170006IivEEvRS2_PT_, symObjAddr: 0x24C0, symBinAddr: 0x100004C7C, symSize: 0x2C }
  - { offsetInCU: 0xFBCB, offset: 0xFBCB, size: 0x8, addend: 0x0, symName: __ZNSt3__19allocatorIiE7destroyB8ue170006EPi, symObjAddr: 0x2500, symBinAddr: 0x100004CBC, symSize: 0x14 }
  - { offsetInCU: 0xFBFF, offset: 0xFBFF, size: 0x8, addend: 0x0, symName: __ZNKSt3__16vectorIiNS_9allocatorIiEEE31__annotate_contiguous_containerB8ue170006EPKvS5_S5_S5_, symObjAddr: 0x2514, symBinAddr: 0x100004CD0, symSize: 0x20 }
  - { offsetInCU: 0xFC51, offset: 0xFC51, size: 0x8, addend: 0x0, symName: __ZNKSt3__16vectorIiNS_9allocatorIiEEE4dataB8ue170006Ev, symObjAddr: 0x2534, symBinAddr: 0x100004CF0, symSize: 0x28 }
  - { offsetInCU: 0xFC77, offset: 0xFC77, size: 0x8, addend: 0x0, symName: __ZNSt3__19allocatorIiE10deallocateB8ue170006EPim, symObjAddr: 0x255C, symBinAddr: 0x100004D18, symSize: 0x70 }
  - { offsetInCU: 0xFCB9, offset: 0xFCB9, size: 0x8, addend: 0x0, symName: __ZNSt3__117__compressed_pairIPiNS_9allocatorIiEEE6secondB8ue170006Ev, symObjAddr: 0x25CC, symBinAddr: 0x100004D88, symSize: 0x24 }
  - { offsetInCU: 0xFCDF, offset: 0xFCDF, size: 0x8, addend: 0x0, symName: __ZNSt3__122__compressed_pair_elemINS_9allocatorIiEELi1ELb1EE5__getB8ue170006Ev, symObjAddr: 0x25F0, symBinAddr: 0x100004DAC, symSize: 0x14 }
  - { offsetInCU: 0xFD05, offset: 0xFD05, size: 0x8, addend: 0x0, symName: __ZNKSt3__16vectorIiNS_9allocatorIiEEE9__end_capB8ue170006Ev, symObjAddr: 0x2604, symBinAddr: 0x100004DC0, symSize: 0x28 }
  - { offsetInCU: 0xFD2B, offset: 0xFD2B, size: 0x8, addend: 0x0, symName: __ZNKSt3__117__compressed_pairIPiNS_9allocatorIiEEE5firstB8ue170006Ev, symObjAddr: 0x262C, symBinAddr: 0x100004DE8, symSize: 0x24 }
  - { offsetInCU: 0xFD51, offset: 0xFD51, size: 0x8, addend: 0x0, symName: __ZNKSt3__122__compressed_pair_elemIPiLi0ELb0EE5__getB8ue170006Ev, symObjAddr: 0x2650, symBinAddr: 0x100004E0C, symSize: 0x14 }
  - { offsetInCU: 0xFD77, offset: 0xFD77, size: 0x8, addend: 0x0, symName: __ZNSt3__16vectorIiNS_9allocatorIiEEE9__end_capB8ue170006Ev, symObjAddr: 0x2664, symBinAddr: 0x100004E20, symSize: 0x28 }
  - { offsetInCU: 0xFDA2, offset: 0xFDA2, size: 0x8, addend: 0x0, symName: __ZNSt3__16vectorIiNS_9allocatorIiEEE22__construct_one_at_endB8ue170006IJiEEEvDpOT_, symObjAddr: 0x268C, symBinAddr: 0x100004E48, symSize: 0x98 }
  - { offsetInCU: 0xFDF1, offset: 0xFDF1, size: 0x8, addend: 0x0, symName: __ZNSt3__16vectorIiNS_9allocatorIiEEE21__push_back_slow_pathIiEEvOT_, symObjAddr: 0x2724, symBinAddr: 0x100004EE0, symSize: 0xE0 }
  - { offsetInCU: 0xFE4F, offset: 0xFE4F, size: 0x8, addend: 0x0, symName: __ZNSt3__117__compressed_pairIPiNS_9allocatorIiEEE5firstB8ue170006Ev, symObjAddr: 0x2804, symBinAddr: 0x100004FC0, symSize: 0x24 }
  - { offsetInCU: 0xFE75, offset: 0xFE75, size: 0x8, addend: 0x0, symName: __ZNSt3__122__compressed_pair_elemIPiLi0ELb0EE5__getB8ue170006Ev, symObjAddr: 0x2828, symBinAddr: 0x100004FE4, symSize: 0x14 }
  - { offsetInCU: 0xFEB4, offset: 0xFEB4, size: 0x8, addend: 0x0, symName: __ZNSt3__16vectorIiNS_9allocatorIiEEE21_ConstructTransactionC1B8ue170006ERS3_m, symObjAddr: 0x283C, symBinAddr: 0x100004FF8, symSize: 0x3C }
  - { offsetInCU: 0xFEFC, offset: 0xFEFC, size: 0x8, addend: 0x0, symName: __ZNSt3__116allocator_traitsINS_9allocatorIiEEE9constructB8ue170006IiJiEvEEvRS2_PT_DpOT0_, symObjAddr: 0x2878, symBinAddr: 0x100005034, symSize: 0x34 }
  - { offsetInCU: 0xFF53, offset: 0xFF53, size: 0x8, addend: 0x0, symName: __ZNSt3__16vectorIiNS_9allocatorIiEEE21_ConstructTransactionD1B8ue170006Ev, symObjAddr: 0x28AC, symBinAddr: 0x100005068, symSize: 0x2C }
  - { offsetInCU: 0xFF7D, offset: 0xFF7D, size: 0x8, addend: 0x0, symName: __ZNSt3__16vectorIiNS_9allocatorIiEEE21_ConstructTransactionC2B8ue170006ERS3_m, symObjAddr: 0x28D8, symBinAddr: 0x100005094, symSize: 0x44 }
  - { offsetInCU: 0xFFC5, offset: 0xFFC5, size: 0x8, addend: 0x0, symName: __ZNSt3__19allocatorIiE9constructB8ue170006IiJiEEEvPT_DpOT0_, symObjAddr: 0x291C, symBinAddr: 0x1000050D8, symSize: 0x28 }
  - { offsetInCU: 0x1001B, offset: 0x1001B, size: 0x8, addend: 0x0, symName: __ZNSt3__16vectorIiNS_9allocatorIiEEE21_ConstructTransactionD2B8ue170006Ev, symObjAddr: 0x2944, symBinAddr: 0x100005100, symSize: 0x20 }
  - { offsetInCU: 0x10045, offset: 0x10045, size: 0x8, addend: 0x0, symName: __ZNKSt3__16vectorIiNS_9allocatorIiEEE11__recommendB8ue170006Em, symObjAddr: 0x2964, symBinAddr: 0x100005120, symSize: 0xB4 }
  - { offsetInCU: 0x1009A, offset: 0x1009A, size: 0x8, addend: 0x0, symName: __ZNSt3__114__split_bufferIiRNS_9allocatorIiEEEC1EmmS3_, symObjAddr: 0x2A18, symBinAddr: 0x1000051D4, symSize: 0x44 }
  - { offsetInCU: 0x100F0, offset: 0x100F0, size: 0x8, addend: 0x0, symName: __ZNSt3__114__split_bufferIiRNS_9allocatorIiEEED1Ev, symObjAddr: 0x2B6C, symBinAddr: 0x100005328, symSize: 0x2C }
  - { offsetInCU: 0x1011C, offset: 0x1011C, size: 0x8, addend: 0x0, symName: __ZNKSt3__16vectorIiNS_9allocatorIiEEE8max_sizeEv, symObjAddr: 0x2B98, symBinAddr: 0x100005354, symSize: 0x74 }
  - { offsetInCU: 0x10144, offset: 0x10144, size: 0x8, addend: 0x0, symName: __ZNKSt3__16vectorIiNS_9allocatorIiEEE20__throw_length_errorB8ue170006Ev, symObjAddr: 0x2C0C, symBinAddr: 0x1000053C8, symSize: 0x1C }
  - { offsetInCU: 0x10174, offset: 0x10174, size: 0x8, addend: 0x0, symName: __ZNSt3__116allocator_traitsINS_9allocatorIiEEE8max_sizeB8ue170006IS2_vEEmRKS2_, symObjAddr: 0x2C80, symBinAddr: 0x10000543C, symSize: 0x24 }
  - { offsetInCU: 0x101A2, offset: 0x101A2, size: 0x8, addend: 0x0, symName: __ZNKSt3__16vectorIiNS_9allocatorIiEEE7__allocB8ue170006Ev, symObjAddr: 0x2CA4, symBinAddr: 0x100005460, symSize: 0x28 }
  - { offsetInCU: 0x101C8, offset: 0x101C8, size: 0x8, addend: 0x0, symName: __ZNSt3__114numeric_limitsIlE3maxB8ue170006Ev, symObjAddr: 0x2CCC, symBinAddr: 0x100005488, symSize: 0x14 }
  - { offsetInCU: 0x101E6, offset: 0x101E6, size: 0x8, addend: 0x0, symName: __ZNKSt3__16__lessIvvEclB8ue170006ImmEEbRKT_RKT0_, symObjAddr: 0x2D34, symBinAddr: 0x1000054F0, symSize: 0x34 }
  - { offsetInCU: 0x1023A, offset: 0x1023A, size: 0x8, addend: 0x0, symName: __ZNKSt3__19allocatorIiE8max_sizeB8ue170006Ev, symObjAddr: 0x2D68, symBinAddr: 0x100005524, symSize: 0x14 }
  - { offsetInCU: 0x10260, offset: 0x10260, size: 0x8, addend: 0x0, symName: __ZNKSt3__117__compressed_pairIPiNS_9allocatorIiEEE6secondB8ue170006Ev, symObjAddr: 0x2D7C, symBinAddr: 0x100005538, symSize: 0x24 }
  - { offsetInCU: 0x10286, offset: 0x10286, size: 0x8, addend: 0x0, symName: __ZNKSt3__122__compressed_pair_elemINS_9allocatorIiEELi1ELb1EE5__getB8ue170006Ev, symObjAddr: 0x2DA0, symBinAddr: 0x10000555C, symSize: 0x14 }
  - { offsetInCU: 0x102AC, offset: 0x102AC, size: 0x8, addend: 0x0, symName: __ZNSt3__123__libcpp_numeric_limitsIlLb1EE3maxB8ue170006Ev, symObjAddr: 0x2DB4, symBinAddr: 0x100005570, symSize: 0x8 }
  - { offsetInCU: 0x102C0, offset: 0x102C0, size: 0x8, addend: 0x0, symName: __ZNSt12length_errorC1B8ue170006EPKc, symObjAddr: 0x2E20, symBinAddr: 0x1000055DC, symSize: 0x34 }
  - { offsetInCU: 0x102F8, offset: 0x102F8, size: 0x8, addend: 0x0, symName: __ZNSt12length_errorC2B8ue170006EPKc, symObjAddr: 0x2E54, symBinAddr: 0x100005610, symSize: 0x4C }
  - { offsetInCU: 0x10330, offset: 0x10330, size: 0x8, addend: 0x0, symName: __ZNSt3__114__split_bufferIiRNS_9allocatorIiEEEC2EmmS3_, symObjAddr: 0x2EF4, symBinAddr: 0x1000056B0, symSize: 0xD4 }
  - { offsetInCU: 0x103A3, offset: 0x103A3, size: 0x8, addend: 0x0, symName: __ZNSt3__117__compressed_pairIPiRNS_9allocatorIiEEEC1B8ue170006IDnS4_EEOT_OT0_, symObjAddr: 0x2FC8, symBinAddr: 0x100005784, symSize: 0x3C }
  - { offsetInCU: 0x103FB, offset: 0x103FB, size: 0x8, addend: 0x0, symName: __ZNSt3__114__split_bufferIiRNS_9allocatorIiEEE7__allocB8ue170006Ev, symObjAddr: 0x3044, symBinAddr: 0x100005800, symSize: 0x28 }
  - { offsetInCU: 0x10421, offset: 0x10421, size: 0x8, addend: 0x0, symName: __ZNSt3__114__split_bufferIiRNS_9allocatorIiEEE9__end_capB8ue170006Ev, symObjAddr: 0x306C, symBinAddr: 0x100005828, symSize: 0x28 }
  - { offsetInCU: 0x10447, offset: 0x10447, size: 0x8, addend: 0x0, symName: __ZNSt3__117__compressed_pairIPiRNS_9allocatorIiEEEC2B8ue170006IDnS4_EEOT_OT0_, symObjAddr: 0x3094, symBinAddr: 0x100005850, symSize: 0x48 }
  - { offsetInCU: 0x1049F, offset: 0x1049F, size: 0x8, addend: 0x0, symName: __ZNSt3__122__compressed_pair_elemIRNS_9allocatorIiEELi1ELb0EEC2B8ue170006IS3_vEEOT_, symObjAddr: 0x30DC, symBinAddr: 0x100005898, symSize: 0x20 }
  - { offsetInCU: 0x104E1, offset: 0x104E1, size: 0x8, addend: 0x0, symName: __ZNSt3__19allocatorIiE8allocateB8ue170006Em, symObjAddr: 0x30FC, symBinAddr: 0x1000058B8, symSize: 0x84 }
  - { offsetInCU: 0x10515, offset: 0x10515, size: 0x8, addend: 0x0, symName: __ZNSt3__117__compressed_pairIPiRNS_9allocatorIiEEE6secondB8ue170006Ev, symObjAddr: 0x3200, symBinAddr: 0x1000059BC, symSize: 0x28 }
  - { offsetInCU: 0x1053B, offset: 0x1053B, size: 0x8, addend: 0x0, symName: __ZNSt3__122__compressed_pair_elemIRNS_9allocatorIiEELi1ELb0EE5__getB8ue170006Ev, symObjAddr: 0x3228, symBinAddr: 0x1000059E4, symSize: 0x18 }
  - { offsetInCU: 0x10561, offset: 0x10561, size: 0x8, addend: 0x0, symName: __ZNSt3__117__compressed_pairIPiRNS_9allocatorIiEEE5firstB8ue170006Ev, symObjAddr: 0x3240, symBinAddr: 0x1000059FC, symSize: 0x24 }
  - { offsetInCU: 0x10587, offset: 0x10587, size: 0x8, addend: 0x0, symName: __ZNSt3__116reverse_iteratorIPiEC1B8ue170006ES1_, symObjAddr: 0x334C, symBinAddr: 0x100005B08, symSize: 0x34 }
  - { offsetInCU: 0x105BF, offset: 0x105BF, size: 0x8, addend: 0x0, symName: __ZNKSt3__116reverse_iteratorIPiE4baseB8ue170006Ev, symObjAddr: 0x3380, symBinAddr: 0x100005B3C, symSize: 0x18 }
  - { offsetInCU: 0x105E5, offset: 0x105E5, size: 0x8, addend: 0x0, symName: __ZNKSt3__16vectorIiNS_9allocatorIiEEE14__annotate_newB8ue170006Em, symObjAddr: 0x33D4, symBinAddr: 0x100005B90, symSize: 0xAC }
  - { offsetInCU: 0x1061A, offset: 0x1061A, size: 0x8, addend: 0x0, symName: __ZNKSt3__116reverse_iteratorIPiEdeB8ue170006Ev, symObjAddr: 0x3518, symBinAddr: 0x100005CD4, symSize: 0x28 }
  - { offsetInCU: 0x1064E, offset: 0x1064E, size: 0x8, addend: 0x0, symName: __ZNSt3__116reverse_iteratorIPiEppB8ue170006Ev, symObjAddr: 0x3540, symBinAddr: 0x100005CFC, symSize: 0x20 }
  - { offsetInCU: 0x10679, offset: 0x10679, size: 0x8, addend: 0x0, symName: __ZNSt3__119__to_address_helperINS_16reverse_iteratorIPiEEvE6__callB8ue170006ERKS3_, symObjAddr: 0x35D8, symBinAddr: 0x100005D94, symSize: 0x4C }
  - { offsetInCU: 0x1069C, offset: 0x1069C, size: 0x8, addend: 0x0, symName: __ZNKSt3__116reverse_iteratorIPiEptB8ue170006Ev, symObjAddr: 0x3624, symBinAddr: 0x100005DE0, symSize: 0x24 }
  - { offsetInCU: 0x106E5, offset: 0x106E5, size: 0x8, addend: 0x0, symName: __ZNKSt3__111__move_loopINS_17_ClassicAlgPolicyEEclB8ue170006INS_16reverse_iteratorIPiEES6_S6_EENS_4pairIT_T1_EES8_T0_S9_, symObjAddr: 0x38C0, symBinAddr: 0x10000607C, symSize: 0xA0 }
  - { offsetInCU: 0x10750, offset: 0x10750, size: 0x8, addend: 0x0, symName: __ZNSt3__18_IterOpsINS_17_ClassicAlgPolicyEE11__iter_moveB8ue170006IRNS_16reverse_iteratorIPiEEEENS_9enable_ifIXsr12is_referenceIDTdeclsr3stdE7declvalIRT_EEEEE5valueEDTclsr3stdE4movedeclsr3stdE7declvalISA_EEEEE4typeEOS9_, symObjAddr: 0x3AC0, symBinAddr: 0x10000627C, symSize: 0x28 }
  - { offsetInCU: 0x1077C, offset: 0x1077C, size: 0x8, addend: 0x0, symName: __ZNSt3__18_IterOpsINS_17_ClassicAlgPolicyEE25__validate_iter_referenceB8ue170006IRNS_16reverse_iteratorIPiEEEEvv, symObjAddr: 0x3AE8, symBinAddr: 0x1000062A4, symSize: 0x4 }
  - { offsetInCU: 0x1079A, offset: 0x1079A, size: 0x8, addend: 0x0, symName: __ZNSt3__118__unwrap_iter_implINS_16reverse_iteratorIPiEELb0EE8__unwrapB8ue170006ES3_, symObjAddr: 0x3AEC, symBinAddr: 0x1000062A8, symSize: 0x24 }
  - { offsetInCU: 0x107BD, offset: 0x107BD, size: 0x8, addend: 0x0, symName: __ZNSt3__14pairINS_16reverse_iteratorIPiEES3_EC1B8ue170006ERKS3_S6_, symObjAddr: 0x3B10, symBinAddr: 0x1000062CC, symSize: 0x3C }
  - { offsetInCU: 0x10803, offset: 0x10803, size: 0x8, addend: 0x0, symName: __ZNSt3__14pairINS_16reverse_iteratorIPiEES3_EC2B8ue170006ERKS3_S6_, symObjAddr: 0x3B4C, symBinAddr: 0x100006308, symSize: 0x34 }
  - { offsetInCU: 0x10849, offset: 0x10849, size: 0x8, addend: 0x0, symName: __ZNSt3__118__unwrap_iter_implINS_16reverse_iteratorIPiEELb0EE8__rewrapB8ue170006ES3_S3_, symObjAddr: 0x3B80, symBinAddr: 0x10000633C, symSize: 0x2C }
  - { offsetInCU: 0x10876, offset: 0x10876, size: 0x8, addend: 0x0, symName: __ZNSt3__116reverse_iteratorIPiEC2B8ue170006ES1_, symObjAddr: 0x3BAC, symBinAddr: 0x100006368, symSize: 0x28 }
  - { offsetInCU: 0x108AE, offset: 0x108AE, size: 0x8, addend: 0x0, symName: __ZNSt3__114__split_bufferIiRNS_9allocatorIiEEED2Ev, symObjAddr: 0x3BD4, symBinAddr: 0x100006390, symSize: 0x80 }
  - { offsetInCU: 0x108DA, offset: 0x108DA, size: 0x8, addend: 0x0, symName: __ZNSt3__114__split_bufferIiRNS_9allocatorIiEEE5clearB8ue170006Ev, symObjAddr: 0x3C54, symBinAddr: 0x100006410, symSize: 0x28 }
  - { offsetInCU: 0x10900, offset: 0x10900, size: 0x8, addend: 0x0, symName: __ZNKSt3__114__split_bufferIiRNS_9allocatorIiEEE8capacityB8ue170006Ev, symObjAddr: 0x3C7C, symBinAddr: 0x100006438, symSize: 0x40 }
  - { offsetInCU: 0x10926, offset: 0x10926, size: 0x8, addend: 0x0, symName: __ZNSt3__114__split_bufferIiRNS_9allocatorIiEEE17__destruct_at_endB8ue170006EPi, symObjAddr: 0x3CBC, symBinAddr: 0x100006478, symSize: 0x2C }
  - { offsetInCU: 0x1095A, offset: 0x1095A, size: 0x8, addend: 0x0, symName: __ZNSt3__114__split_bufferIiRNS_9allocatorIiEEE17__destruct_at_endB8ue170006EPiNS_17integral_constantIbLb0EEE, symObjAddr: 0x3CE8, symBinAddr: 0x1000064A4, symSize: 0x94 }
  - { offsetInCU: 0x1099A, offset: 0x1099A, size: 0x8, addend: 0x0, symName: __ZNKSt3__114__split_bufferIiRNS_9allocatorIiEEE9__end_capB8ue170006Ev, symObjAddr: 0x3D7C, symBinAddr: 0x100006538, symSize: 0x28 }
  - { offsetInCU: 0x109C0, offset: 0x109C0, size: 0x8, addend: 0x0, symName: __ZNKSt3__117__compressed_pairIPiRNS_9allocatorIiEEE5firstB8ue170006Ev, symObjAddr: 0x3DA4, symBinAddr: 0x100006560, symSize: 0x24 }
  - { offsetInCU: 0x109E6, offset: 0x109E6, size: 0x8, addend: 0x0, symName: __ZNSt3__15queueINS_6vectorIiNS_9allocatorIiEEEENS_5dequeIS4_NS2_IS4_EEEEEC2B8ue170006Ev, symObjAddr: 0x3DC8, symBinAddr: 0x100006584, symSize: 0x2C }
  - { offsetInCU: 0x10A10, offset: 0x10A10, size: 0x8, addend: 0x0, symName: __ZNSt3__15dequeINS_6vectorIiNS_9allocatorIiEEEENS2_IS4_EEEC1B8ue170006Ev, symObjAddr: 0x3DF4, symBinAddr: 0x1000065B0, symSize: 0x2C }
  - { offsetInCU: 0x10A3A, offset: 0x10A3A, size: 0x8, addend: 0x0, symName: __ZNSt3__15dequeINS_6vectorIiNS_9allocatorIiEEEENS2_IS4_EEEC2B8ue170006Ev, symObjAddr: 0x3E20, symBinAddr: 0x1000065DC, symSize: 0x84 }
  - { offsetInCU: 0x10A64, offset: 0x10A64, size: 0x8, addend: 0x0, symName: __ZNSt3__114__split_bufferIPNS_6vectorIiNS_9allocatorIiEEEENS2_IS5_EEEC1B8ue170006Ev, symObjAddr: 0x3EA4, symBinAddr: 0x100006660, symSize: 0x2C }
  - { offsetInCU: 0x10A8E, offset: 0x10A8E, size: 0x8, addend: 0x0, symName: __ZNSt3__117__compressed_pairImNS_9allocatorINS_6vectorIiNS1_IiEEEEEEEC1B8ue170006IiNS_18__default_init_tagEEEOT_OT0_, symObjAddr: 0x3ED0, symBinAddr: 0x10000668C, symSize: 0x3C }
  - { offsetInCU: 0x10AE6, offset: 0x10AE6, size: 0x8, addend: 0x0, symName: __ZNSt3__114__split_bufferIPNS_6vectorIiNS_9allocatorIiEEEENS2_IS5_EEEC2B8ue170006Ev, symObjAddr: 0x3F0C, symBinAddr: 0x1000066C8, symSize: 0x48 }
  - { offsetInCU: 0x10B10, offset: 0x10B10, size: 0x8, addend: 0x0, symName: __ZNSt3__117__compressed_pairIPPNS_6vectorIiNS_9allocatorIiEEEENS2_IS5_EEEC1B8ue170006IDnNS_18__default_init_tagEEEOT_OT0_, symObjAddr: 0x3F54, symBinAddr: 0x100006710, symSize: 0x3C }
  - { offsetInCU: 0x10B68, offset: 0x10B68, size: 0x8, addend: 0x0, symName: __ZNSt3__117__compressed_pairIPPNS_6vectorIiNS_9allocatorIiEEEENS2_IS5_EEEC2B8ue170006IDnNS_18__default_init_tagEEEOT_OT0_, symObjAddr: 0x3F90, symBinAddr: 0x10000674C, symSize: 0x40 }
  - { offsetInCU: 0x10BC0, offset: 0x10BC0, size: 0x8, addend: 0x0, symName: __ZNSt3__122__compressed_pair_elemIPPNS_6vectorIiNS_9allocatorIiEEEELi0ELb0EEC2B8ue170006IDnvEEOT_, symObjAddr: 0x3FD0, symBinAddr: 0x10000678C, symSize: 0x1C }
  - { offsetInCU: 0x10C02, offset: 0x10C02, size: 0x8, addend: 0x0, symName: __ZNSt3__122__compressed_pair_elemINS_9allocatorIPNS_6vectorIiNS1_IiEEEEEELi1ELb1EEC2B8ue170006ENS_18__default_init_tagE, symObjAddr: 0x3FEC, symBinAddr: 0x1000067A8, symSize: 0x2C }
  - { offsetInCU: 0x10C36, offset: 0x10C36, size: 0x8, addend: 0x0, symName: __ZNSt3__19allocatorIPNS_6vectorIiNS0_IiEEEEEC2B8ue170006Ev, symObjAddr: 0x4018, symBinAddr: 0x1000067D4, symSize: 0x2C }
  - { offsetInCU: 0x10C60, offset: 0x10C60, size: 0x8, addend: 0x0, symName: __ZNSt3__116__non_trivial_ifILb1ENS_9allocatorIPNS_6vectorIiNS1_IiEEEEEEEC2B8ue170006Ev, symObjAddr: 0x4044, symBinAddr: 0x100006800, symSize: 0x14 }
  - { offsetInCU: 0x10C8A, offset: 0x10C8A, size: 0x8, addend: 0x0, symName: __ZNSt3__117__compressed_pairImNS_9allocatorINS_6vectorIiNS1_IiEEEEEEEC2B8ue170006IiNS_18__default_init_tagEEEOT_OT0_, symObjAddr: 0x4058, symBinAddr: 0x100006814, symSize: 0x40 }
  - { offsetInCU: 0x10CE2, offset: 0x10CE2, size: 0x8, addend: 0x0, symName: __ZNSt3__122__compressed_pair_elemImLi0ELb0EEC2B8ue170006IivEEOT_, symObjAddr: 0x4098, symBinAddr: 0x100006854, symSize: 0x24 }
  - { offsetInCU: 0x10D24, offset: 0x10D24, size: 0x8, addend: 0x0, symName: __ZNSt3__122__compressed_pair_elemINS_9allocatorINS_6vectorIiNS1_IiEEEEEELi1ELb1EEC2B8ue170006ENS_18__default_init_tagE, symObjAddr: 0x40BC, symBinAddr: 0x100006878, symSize: 0x2C }
  - { offsetInCU: 0x10D58, offset: 0x10D58, size: 0x8, addend: 0x0, symName: __ZNSt3__19allocatorINS_6vectorIiNS0_IiEEEEEC2B8ue170006Ev, symObjAddr: 0x40E8, symBinAddr: 0x1000068A4, symSize: 0x2C }
  - { offsetInCU: 0x10D82, offset: 0x10D82, size: 0x8, addend: 0x0, symName: __ZNSt3__116__non_trivial_ifILb1ENS_9allocatorINS_6vectorIiNS1_IiEEEEEEEC2B8ue170006Ev, symObjAddr: 0x4114, symBinAddr: 0x1000068D0, symSize: 0x14 }
  - { offsetInCU: 0x10DAC, offset: 0x10DAC, size: 0x8, addend: 0x0, symName: __ZNSt3__15dequeINS_6vectorIiNS_9allocatorIiEEEENS2_IS4_EEE9push_backERKS4_, symObjAddr: 0x4128, symBinAddr: 0x1000068E4, symSize: 0xAC }
  - { offsetInCU: 0x10DF2, offset: 0x10DF2, size: 0x8, addend: 0x0, symName: __ZNKSt3__15dequeINS_6vectorIiNS_9allocatorIiEEEENS2_IS4_EEE12__back_spareB8ue170006Ev, symObjAddr: 0x41D4, symBinAddr: 0x100006990, symSize: 0x54 }
  - { offsetInCU: 0x10E18, offset: 0x10E18, size: 0x8, addend: 0x0, symName: __ZNSt3__15dequeINS_6vectorIiNS_9allocatorIiEEEENS2_IS4_EEE19__add_back_capacityEv, symObjAddr: 0x4228, symBinAddr: 0x1000069E4, symSize: 0x364 }
  - { offsetInCU: 0x10ECD, offset: 0x10ECD, size: 0x8, addend: 0x0, symName: __ZNKSt3__15dequeINS_6vectorIiNS_9allocatorIiEEEENS2_IS4_EEE24__annotate_increase_backB8ue170006Em, symObjAddr: 0x458C, symBinAddr: 0x100006D48, symSize: 0x7C }
  - { offsetInCU: 0x10F02, offset: 0x10F02, size: 0x8, addend: 0x0, symName: __ZNSt3__116allocator_traitsINS_9allocatorINS_6vectorIiNS1_IiEEEEEEE9constructB8ue170006IS4_JRKS4_EvEEvRS5_PT_DpOT0_, symObjAddr: 0x4608, symBinAddr: 0x100006DC4, symSize: 0x34 }
  - { offsetInCU: 0x10F59, offset: 0x10F59, size: 0x8, addend: 0x0, symName: __ZNKSt3__15dequeINS_6vectorIiNS_9allocatorIiEEEENS2_IS4_EEE10__capacityB8ue170006Ev, symObjAddr: 0x463C, symBinAddr: 0x100006DF8, symSize: 0x64 }
  - { offsetInCU: 0x10F7F, offset: 0x10F7F, size: 0x8, addend: 0x0, symName: __ZNKSt3__15dequeINS_6vectorIiNS_9allocatorIiEEEENS2_IS4_EEE13__front_spareB8ue170006Ev, symObjAddr: 0x46A0, symBinAddr: 0x100006E5C, symSize: 0x18 }
  - { offsetInCU: 0x10FA5, offset: 0x10FA5, size: 0x8, addend: 0x0, symName: __ZNSt3__114__split_bufferIPNS_6vectorIiNS_9allocatorIiEEEENS2_IS5_EEE9push_backB8ue170006ERKS5_, symObjAddr: 0x46B8, symBinAddr: 0x100006E74, symSize: 0x270 }
  - { offsetInCU: 0x1101D, offset: 0x1101D, size: 0x8, addend: 0x0, symName: __ZNKSt3__114__split_bufferIPNS_6vectorIiNS_9allocatorIiEEEENS2_IS5_EEE12__back_spareB8ue170006Ev, symObjAddr: 0x4928, symBinAddr: 0x1000070E4, symSize: 0x40 }
  - { offsetInCU: 0x11043, offset: 0x11043, size: 0x8, addend: 0x0, symName: __ZNSt3__114__split_bufferIPNS_6vectorIiNS_9allocatorIiEEEENS2_IS5_EEE9push_backEOS5_, symObjAddr: 0x4968, symBinAddr: 0x100007124, symSize: 0x270 }
  - { offsetInCU: 0x110BB, offset: 0x110BB, size: 0x8, addend: 0x0, symName: __ZNSt3__116allocator_traitsINS_9allocatorINS_6vectorIiNS1_IiEEEEEEE8allocateB8ue170006ERS5_m, symObjAddr: 0x4BD8, symBinAddr: 0x100007394, symSize: 0x2C }
  - { offsetInCU: 0x110EE, offset: 0x110EE, size: 0x8, addend: 0x0, symName: __ZNSt3__114__split_bufferIPNS_6vectorIiNS_9allocatorIiEEEENS2_IS5_EEE10push_frontEOS5_, symObjAddr: 0x4C04, symBinAddr: 0x1000073C0, symSize: 0x26C }
  - { offsetInCU: 0x11166, offset: 0x11166, size: 0x8, addend: 0x0, symName: __ZNSt3__114__split_bufferIPNS_6vectorIiNS_9allocatorIiEEEERNS2_IS5_EEEC1EmmS7_, symObjAddr: 0x4E70, symBinAddr: 0x10000762C, symSize: 0x44 }
  - { offsetInCU: 0x111C1, offset: 0x111C1, size: 0x8, addend: 0x0, symName: __ZNSt3__122__allocator_destructorINS_9allocatorINS_6vectorIiNS1_IiEEEEEEEC1B8ue170006ERS5_m, symObjAddr: 0x4EB4, symBinAddr: 0x100007670, symSize: 0x3C }
  - { offsetInCU: 0x11289, offset: 0x11289, size: 0x8, addend: 0x0, symName: __ZNSt3__110unique_ptrIPNS_6vectorIiNS_9allocatorIiEEEENS_22__allocator_destructorINS2_IS4_EEEEEC1B8ue170006ILb1EvEES5_NS_16__dependent_typeINS_27__unique_ptr_deleter_sfinaeIS8_EEXT_EE20__good_rval_ref_typeE, symObjAddr: 0x4EF0, symBinAddr: 0x1000076AC, symSize: 0x3C }
  - { offsetInCU: 0x112DA, offset: 0x112DA, size: 0x8, addend: 0x0, symName: __ZNSt3__114__split_bufferIPNS_6vectorIiNS_9allocatorIiEEEERNS2_IS5_EEE9push_backEOS5_, symObjAddr: 0x4F2C, symBinAddr: 0x1000076E8, symSize: 0x270 }
  - { offsetInCU: 0x11352, offset: 0x11352, size: 0x8, addend: 0x0, symName: __ZNKSt3__110unique_ptrIPNS_6vectorIiNS_9allocatorIiEEEENS_22__allocator_destructorINS2_IS4_EEEEE3getB8ue170006Ev, symObjAddr: 0x519C, symBinAddr: 0x100007958, symSize: 0x28 }
  - { offsetInCU: 0x11378, offset: 0x11378, size: 0x8, addend: 0x0, symName: __ZNSt3__110unique_ptrIPNS_6vectorIiNS_9allocatorIiEEEENS_22__allocator_destructorINS2_IS4_EEEEE7releaseB8ue170006Ev, symObjAddr: 0x51C4, symBinAddr: 0x100007980, symSize: 0x44 }
  - { offsetInCU: 0x113AD, offset: 0x113AD, size: 0x8, addend: 0x0, symName: __ZNSt3__114__split_bufferIPNS_6vectorIiNS_9allocatorIiEEEERNS2_IS5_EEE10push_frontERKS5_, symObjAddr: 0x5208, symBinAddr: 0x1000079C4, symSize: 0x26C }
  - { offsetInCU: 0x11425, offset: 0x11425, size: 0x8, addend: 0x0, symName: __ZNSt3__114__split_bufferIPNS_6vectorIiNS_9allocatorIiEEEENS2_IS5_EEE9__end_capB8ue170006Ev, symObjAddr: 0x54B0, symBinAddr: 0x100007C6C, symSize: 0x28 }
  - { offsetInCU: 0x1144B, offset: 0x1144B, size: 0x8, addend: 0x0, symName: __ZNSt3__114__split_bufferIPNS_6vectorIiNS_9allocatorIiEEEERNS2_IS5_EEE9__end_capB8ue170006Ev, symObjAddr: 0x54D8, symBinAddr: 0x100007C94, symSize: 0x28 }
  - { offsetInCU: 0x11471, offset: 0x11471, size: 0x8, addend: 0x0, symName: __ZNSt3__110unique_ptrIPNS_6vectorIiNS_9allocatorIiEEEENS_22__allocator_destructorINS2_IS4_EEEEED1B8ue170006Ev, symObjAddr: 0x5500, symBinAddr: 0x100007CBC, symSize: 0x2C }
  - { offsetInCU: 0x1149B, offset: 0x1149B, size: 0x8, addend: 0x0, symName: __ZNSt3__114__split_bufferIPNS_6vectorIiNS_9allocatorIiEEEERNS2_IS5_EEED1Ev, symObjAddr: 0x552C, symBinAddr: 0x100007CE8, symSize: 0x2C }
  - { offsetInCU: 0x114C7, offset: 0x114C7, size: 0x8, addend: 0x0, symName: __ZNSt3__114__split_bufferIPNS_6vectorIiNS_9allocatorIiEEEERNS2_IS5_EEE18__construct_at_endINS_13move_iteratorIPS5_EEEENS_9enable_ifIXsr31__has_forward_iterator_categoryIT_EE5valueEvE4typeESE_SE_, symObjAddr: 0x5598, symBinAddr: 0x100007D54, symSize: 0x60 }
  - { offsetInCU: 0x11514, offset: 0x11514, size: 0x8, addend: 0x0, symName: __ZNSt3__113move_iteratorIPPNS_6vectorIiNS_9allocatorIiEEEEEC1B8ue170006ES6_, symObjAddr: 0x55F8, symBinAddr: 0x100007DB4, symSize: 0x34 }
  - { offsetInCU: 0x1154C, offset: 0x1154C, size: 0x8, addend: 0x0, symName: __ZNSt3__116allocator_traitsINS_9allocatorIPNS_6vectorIiNS1_IiEEEEEEE9constructB8ue170006IS5_JRKS5_EvEEvRS6_PT_DpOT0_, symObjAddr: 0x562C, symBinAddr: 0x100007DE8, symSize: 0x34 }
  - { offsetInCU: 0x115C6, offset: 0x115C6, size: 0x8, addend: 0x0, symName: __ZNKSt3__114__move_trivialclB8ue170006IPNS_6vectorIiNS_9allocatorIiEEEES6_Li0EEENS_4pairIPT_PT0_EES9_S9_SB_, symObjAddr: 0x57FC, symBinAddr: 0x100007FB8, symSize: 0x48 }
  - { offsetInCU: 0x1162E, offset: 0x1162E, size: 0x8, addend: 0x0, symName: __ZNSt3__14pairIPPNS_6vectorIiNS_9allocatorIiEEEES6_EC1B8ue170006ERKS6_S9_, symObjAddr: 0x5A74, symBinAddr: 0x100008230, symSize: 0x3C }
  - { offsetInCU: 0x11674, offset: 0x11674, size: 0x8, addend: 0x0, symName: __ZNSt3__14pairIPPNS_6vectorIiNS_9allocatorIiEEEES6_EC2B8ue170006ERKS6_S9_, symObjAddr: 0x5AB0, symBinAddr: 0x10000826C, symSize: 0x34 }
  - { offsetInCU: 0x116BA, offset: 0x116BA, size: 0x8, addend: 0x0, symName: __ZNSt3__118__unwrap_iter_implIPPNS_6vectorIiNS_9allocatorIiEEEELb1EE8__unwrapB8ue170006ES6_, symObjAddr: 0x5AE4, symBinAddr: 0x1000082A0, symSize: 0x24 }
  - { offsetInCU: 0x116DD, offset: 0x116DD, size: 0x8, addend: 0x0, symName: __ZNSt3__118__unwrap_iter_implIPPNS_6vectorIiNS_9allocatorIiEEEELb1EE8__rewrapB8ue170006ES6_S6_, symObjAddr: 0x5B08, symBinAddr: 0x1000082C4, symSize: 0x50 }
  - { offsetInCU: 0x1170E, offset: 0x1170E, size: 0x8, addend: 0x0, symName: __ZNSt3__114__split_bufferIPNS_6vectorIiNS_9allocatorIiEEEERNS2_IS5_EEE28__construct_at_end_with_sizeINS_13move_iteratorIPS5_EEEEvT_m, symObjAddr: 0x5B58, symBinAddr: 0x100008314, symSize: 0xE4 }
  - { offsetInCU: 0x11774, offset: 0x11774, size: 0x8, addend: 0x0, symName: __ZNSt3__114__split_bufferIPNS_6vectorIiNS_9allocatorIiEEEERNS2_IS5_EEE21_ConstructTransactionC1B8ue170006EPPS5_m, symObjAddr: 0x5C78, symBinAddr: 0x100008434, symSize: 0x3C }
  - { offsetInCU: 0x117BA, offset: 0x117BA, size: 0x8, addend: 0x0, symName: __ZNSt3__116allocator_traitsINS_9allocatorIPNS_6vectorIiNS1_IiEEEEEEE9constructB8ue170006IS5_JS5_EvEEvRS6_PT_DpOT0_, symObjAddr: 0x5CB4, symBinAddr: 0x100008470, symSize: 0x34 }
  - { offsetInCU: 0x11811, offset: 0x11811, size: 0x8, addend: 0x0, symName: __ZNSt3__114__split_bufferIPNS_6vectorIiNS_9allocatorIiEEEERNS2_IS5_EEE7__allocB8ue170006Ev, symObjAddr: 0x5CE8, symBinAddr: 0x1000084A4, symSize: 0x28 }
  - { offsetInCU: 0x11837, offset: 0x11837, size: 0x8, addend: 0x0, symName: __ZNKSt3__113move_iteratorIPPNS_6vectorIiNS_9allocatorIiEEEEEdeB8ue170006Ev, symObjAddr: 0x5D10, symBinAddr: 0x1000084CC, symSize: 0x18 }
  - { offsetInCU: 0x1185D, offset: 0x1185D, size: 0x8, addend: 0x0, symName: __ZNSt3__113move_iteratorIPPNS_6vectorIiNS_9allocatorIiEEEEEppB8ue170006Ev, symObjAddr: 0x5D28, symBinAddr: 0x1000084E4, symSize: 0x20 }
  - { offsetInCU: 0x11883, offset: 0x11883, size: 0x8, addend: 0x0, symName: __ZNSt3__114__split_bufferIPNS_6vectorIiNS_9allocatorIiEEEERNS2_IS5_EEE21_ConstructTransactionD1B8ue170006Ev, symObjAddr: 0x5D48, symBinAddr: 0x100008504, symSize: 0x2C }
  - { offsetInCU: 0x118AD, offset: 0x118AD, size: 0x8, addend: 0x0, symName: __ZNSt3__114__split_bufferIPNS_6vectorIiNS_9allocatorIiEEEERNS2_IS5_EEE21_ConstructTransactionC2B8ue170006EPPS5_m, symObjAddr: 0x5D74, symBinAddr: 0x100008530, symSize: 0x44 }
  - { offsetInCU: 0x118F3, offset: 0x118F3, size: 0x8, addend: 0x0, symName: __ZNSt3__19allocatorIPNS_6vectorIiNS0_IiEEEEE9constructB8ue170006IS4_JS4_EEEvPT_DpOT0_, symObjAddr: 0x5DB8, symBinAddr: 0x100008574, symSize: 0x28 }
  - { offsetInCU: 0x11949, offset: 0x11949, size: 0x8, addend: 0x0, symName: __ZNSt3__117__compressed_pairIPPNS_6vectorIiNS_9allocatorIiEEEERNS2_IS5_EEE6secondB8ue170006Ev, symObjAddr: 0x5DE0, symBinAddr: 0x10000859C, symSize: 0x28 }
  - { offsetInCU: 0x1196F, offset: 0x1196F, size: 0x8, addend: 0x0, symName: __ZNSt3__122__compressed_pair_elemIRNS_9allocatorIPNS_6vectorIiNS1_IiEEEEEELi1ELb0EE5__getB8ue170006Ev, symObjAddr: 0x5E08, symBinAddr: 0x1000085C4, symSize: 0x18 }
  - { offsetInCU: 0x11995, offset: 0x11995, size: 0x8, addend: 0x0, symName: __ZNSt3__114__split_bufferIPNS_6vectorIiNS_9allocatorIiEEEERNS2_IS5_EEE21_ConstructTransactionD2B8ue170006Ev, symObjAddr: 0x5E20, symBinAddr: 0x1000085DC, symSize: 0x20 }
  - { offsetInCU: 0x119BF, offset: 0x119BF, size: 0x8, addend: 0x0, symName: __ZNKSt3__113move_iteratorIPPNS_6vectorIiNS_9allocatorIiEEEEE4baseB8ue170006Ev, symObjAddr: 0x5EB8, symBinAddr: 0x100008674, symSize: 0x18 }
  - { offsetInCU: 0x119E5, offset: 0x119E5, size: 0x8, addend: 0x0, symName: __ZNSt3__113move_iteratorIPPNS_6vectorIiNS_9allocatorIiEEEEEC2B8ue170006ES6_, symObjAddr: 0x5ED0, symBinAddr: 0x10000868C, symSize: 0x20 }
  - { offsetInCU: 0x11A1D, offset: 0x11A1D, size: 0x8, addend: 0x0, symName: __ZNSt3__19allocatorIPNS_6vectorIiNS0_IiEEEEE9constructB8ue170006IS4_JRKS4_EEEvPT_DpOT0_, symObjAddr: 0x5EF0, symBinAddr: 0x1000086AC, symSize: 0x28 }
  - { offsetInCU: 0x11A73, offset: 0x11A73, size: 0x8, addend: 0x0, symName: __ZNSt3__19allocatorINS_6vectorIiNS0_IiEEEEE8allocateB8ue170006Em, symObjAddr: 0x5F18, symBinAddr: 0x1000086D4, symSize: 0x8C }
  - { offsetInCU: 0x11AB1, offset: 0x11AB1, size: 0x8, addend: 0x0, symName: __ZNSt3__116allocator_traitsINS_9allocatorINS_6vectorIiNS1_IiEEEEEEE8max_sizeB8ue170006IS5_vEEmRKS5_, symObjAddr: 0x5FA4, symBinAddr: 0x100008760, symSize: 0x24 }
  - { offsetInCU: 0x11ADF, offset: 0x11ADF, size: 0x8, addend: 0x0, symName: __ZNKSt3__19allocatorINS_6vectorIiNS0_IiEEEEE8max_sizeB8ue170006Ev, symObjAddr: 0x5FC8, symBinAddr: 0x100008784, symSize: 0x18 }
  - { offsetInCU: 0x11B0F, offset: 0x11B0F, size: 0x8, addend: 0x0, symName: __ZNKSt3__123__move_backward_trivialclB8ue170006IPNS_6vectorIiNS_9allocatorIiEEEES6_Li0EEENS_4pairIPT_PT0_EES9_S9_SB_, symObjAddr: 0x615C, symBinAddr: 0x100008918, symSize: 0x48 }
  - { offsetInCU: 0x11B77, offset: 0x11B77, size: 0x8, addend: 0x0, symName: __ZNSt3__114__split_bufferIPNS_6vectorIiNS_9allocatorIiEEEERNS2_IS5_EEEC2EmmS7_, symObjAddr: 0x626C, symBinAddr: 0x100008A28, symSize: 0xD4 }
  - { offsetInCU: 0x11BEA, offset: 0x11BEA, size: 0x8, addend: 0x0, symName: __ZNSt3__117__compressed_pairIPPNS_6vectorIiNS_9allocatorIiEEEERNS2_IS5_EEEC1B8ue170006IDnS8_EEOT_OT0_, symObjAddr: 0x6340, symBinAddr: 0x100008AFC, symSize: 0x3C }
  - { offsetInCU: 0x11C42, offset: 0x11C42, size: 0x8, addend: 0x0, symName: __ZNSt3__117__compressed_pairIPPNS_6vectorIiNS_9allocatorIiEEEERNS2_IS5_EEEC2B8ue170006IDnS8_EEOT_OT0_, symObjAddr: 0x63BC, symBinAddr: 0x100008B78, symSize: 0x48 }
  - { offsetInCU: 0x11C9A, offset: 0x11C9A, size: 0x8, addend: 0x0, symName: __ZNSt3__122__compressed_pair_elemIRNS_9allocatorIPNS_6vectorIiNS1_IiEEEEEELi1ELb0EEC2B8ue170006IS7_vEEOT_, symObjAddr: 0x6404, symBinAddr: 0x100008BC0, symSize: 0x20 }
  - { offsetInCU: 0x11CDC, offset: 0x11CDC, size: 0x8, addend: 0x0, symName: __ZNSt3__19allocatorIPNS_6vectorIiNS0_IiEEEEE8allocateB8ue170006Em, symObjAddr: 0x6424, symBinAddr: 0x100008BE0, symSize: 0x84 }
  - { offsetInCU: 0x11D1A, offset: 0x11D1A, size: 0x8, addend: 0x0, symName: __ZNSt3__116allocator_traitsINS_9allocatorIPNS_6vectorIiNS1_IiEEEEEEE8max_sizeB8ue170006IS6_vEEmRKS6_, symObjAddr: 0x64A8, symBinAddr: 0x100008C64, symSize: 0x24 }
  - { offsetInCU: 0x11D48, offset: 0x11D48, size: 0x8, addend: 0x0, symName: __ZNKSt3__19allocatorIPNS_6vectorIiNS0_IiEEEEE8max_sizeB8ue170006Ev, symObjAddr: 0x64CC, symBinAddr: 0x100008C88, symSize: 0x14 }
  - { offsetInCU: 0x11D6E, offset: 0x11D6E, size: 0x8, addend: 0x0, symName: __ZNSt3__122__allocator_destructorINS_9allocatorINS_6vectorIiNS1_IiEEEEEEEC2B8ue170006ERS5_m, symObjAddr: 0x64E0, symBinAddr: 0x100008C9C, symSize: 0x2C }
  - { offsetInCU: 0x11DB4, offset: 0x11DB4, size: 0x8, addend: 0x0, symName: __ZNSt3__110unique_ptrIPNS_6vectorIiNS_9allocatorIiEEEENS_22__allocator_destructorINS2_IS4_EEEEEC2B8ue170006ILb1EvEES5_NS_16__dependent_typeINS_27__unique_ptr_deleter_sfinaeIS8_EEXT_EE20__good_rval_ref_typeE, symObjAddr: 0x650C, symBinAddr: 0x100008CC8, symSize: 0x5C }
  - { offsetInCU: 0x11E05, offset: 0x11E05, size: 0x8, addend: 0x0, symName: __ZNSt3__117__compressed_pairIPNS_6vectorIiNS_9allocatorIiEEEENS_22__allocator_destructorINS2_IS4_EEEEEC1B8ue170006IRS5_S8_EEOT_OT0_, symObjAddr: 0x6568, symBinAddr: 0x100008D24, symSize: 0x3C }
  - { offsetInCU: 0x11E5D, offset: 0x11E5D, size: 0x8, addend: 0x0, symName: __ZNSt3__117__compressed_pairIPNS_6vectorIiNS_9allocatorIiEEEENS_22__allocator_destructorINS2_IS4_EEEEEC2B8ue170006IRS5_S8_EEOT_OT0_, symObjAddr: 0x65A4, symBinAddr: 0x100008D60, symSize: 0x48 }
  - { offsetInCU: 0x11EB5, offset: 0x11EB5, size: 0x8, addend: 0x0, symName: __ZNSt3__122__compressed_pair_elemIPNS_6vectorIiNS_9allocatorIiEEEELi0ELb0EEC2B8ue170006IRS5_vEEOT_, symObjAddr: 0x65EC, symBinAddr: 0x100008DA8, symSize: 0x24 }
  - { offsetInCU: 0x11EF7, offset: 0x11EF7, size: 0x8, addend: 0x0, symName: __ZNSt3__122__compressed_pair_elemINS_22__allocator_destructorINS_9allocatorINS_6vectorIiNS2_IiEEEEEEEELi1ELb0EEC2B8ue170006IS7_vEEOT_, symObjAddr: 0x6610, symBinAddr: 0x100008DCC, symSize: 0x24 }
  - { offsetInCU: 0x11F39, offset: 0x11F39, size: 0x8, addend: 0x0, symName: __ZNKSt3__117__compressed_pairIPNS_6vectorIiNS_9allocatorIiEEEENS_22__allocator_destructorINS2_IS4_EEEEE5firstB8ue170006Ev, symObjAddr: 0x6634, symBinAddr: 0x100008DF0, symSize: 0x24 }
  - { offsetInCU: 0x11F5F, offset: 0x11F5F, size: 0x8, addend: 0x0, symName: __ZNKSt3__122__compressed_pair_elemIPNS_6vectorIiNS_9allocatorIiEEEELi0ELb0EE5__getB8ue170006Ev, symObjAddr: 0x6658, symBinAddr: 0x100008E14, symSize: 0x14 }
  - { offsetInCU: 0x11F85, offset: 0x11F85, size: 0x8, addend: 0x0, symName: __ZNSt3__117__compressed_pairIPNS_6vectorIiNS_9allocatorIiEEEENS_22__allocator_destructorINS2_IS4_EEEEE5firstB8ue170006Ev, symObjAddr: 0x666C, symBinAddr: 0x100008E28, symSize: 0x24 }
  - { offsetInCU: 0x11FAB, offset: 0x11FAB, size: 0x8, addend: 0x0, symName: __ZNSt3__122__compressed_pair_elemIPNS_6vectorIiNS_9allocatorIiEEEELi0ELb0EE5__getB8ue170006Ev, symObjAddr: 0x6690, symBinAddr: 0x100008E4C, symSize: 0x14 }
  - { offsetInCU: 0x11FD1, offset: 0x11FD1, size: 0x8, addend: 0x0, symName: __ZNSt3__117__compressed_pairIPPNS_6vectorIiNS_9allocatorIiEEEENS2_IS5_EEE5firstB8ue170006Ev, symObjAddr: 0x66A4, symBinAddr: 0x100008E60, symSize: 0x24 }
  - { offsetInCU: 0x11FF7, offset: 0x11FF7, size: 0x8, addend: 0x0, symName: __ZNSt3__122__compressed_pair_elemIPPNS_6vectorIiNS_9allocatorIiEEEELi0ELb0EE5__getB8ue170006Ev, symObjAddr: 0x66C8, symBinAddr: 0x100008E84, symSize: 0x14 }
  - { offsetInCU: 0x1201D, offset: 0x1201D, size: 0x8, addend: 0x0, symName: __ZNSt3__117__compressed_pairIPPNS_6vectorIiNS_9allocatorIiEEEERNS2_IS5_EEE5firstB8ue170006Ev, symObjAddr: 0x66DC, symBinAddr: 0x100008E98, symSize: 0x24 }
  - { offsetInCU: 0x12043, offset: 0x12043, size: 0x8, addend: 0x0, symName: __ZNSt3__110unique_ptrIPNS_6vectorIiNS_9allocatorIiEEEENS_22__allocator_destructorINS2_IS4_EEEEED2B8ue170006Ev, symObjAddr: 0x6700, symBinAddr: 0x100008EBC, symSize: 0x30 }
  - { offsetInCU: 0x1206D, offset: 0x1206D, size: 0x8, addend: 0x0, symName: __ZNSt3__110unique_ptrIPNS_6vectorIiNS_9allocatorIiEEEENS_22__allocator_destructorINS2_IS4_EEEEE5resetB8ue170006ES5_, symObjAddr: 0x6730, symBinAddr: 0x100008EEC, symSize: 0x78 }
  - { offsetInCU: 0x120B1, offset: 0x120B1, size: 0x8, addend: 0x0, symName: __ZNSt3__117__compressed_pairIPNS_6vectorIiNS_9allocatorIiEEEENS_22__allocator_destructorINS2_IS4_EEEEE6secondB8ue170006Ev, symObjAddr: 0x67A8, symBinAddr: 0x100008F64, symSize: 0x28 }
  - { offsetInCU: 0x120D7, offset: 0x120D7, size: 0x8, addend: 0x0, symName: __ZNSt3__122__allocator_destructorINS_9allocatorINS_6vectorIiNS1_IiEEEEEEEclB8ue170006EPS4_, symObjAddr: 0x67D0, symBinAddr: 0x100008F8C, symSize: 0x34 }
  - { offsetInCU: 0x1210B, offset: 0x1210B, size: 0x8, addend: 0x0, symName: __ZNSt3__122__compressed_pair_elemINS_22__allocator_destructorINS_9allocatorINS_6vectorIiNS2_IiEEEEEEEELi1ELb0EE5__getB8ue170006Ev, symObjAddr: 0x6804, symBinAddr: 0x100008FC0, symSize: 0x14 }
  - { offsetInCU: 0x12131, offset: 0x12131, size: 0x8, addend: 0x0, symName: __ZNSt3__114__split_bufferIPNS_6vectorIiNS_9allocatorIiEEEERNS2_IS5_EEED2Ev, symObjAddr: 0x6818, symBinAddr: 0x100008FD4, symSize: 0x80 }
  - { offsetInCU: 0x1215D, offset: 0x1215D, size: 0x8, addend: 0x0, symName: __ZNSt3__114__split_bufferIPNS_6vectorIiNS_9allocatorIiEEEERNS2_IS5_EEE5clearB8ue170006Ev, symObjAddr: 0x6898, symBinAddr: 0x100009054, symSize: 0x28 }
  - { offsetInCU: 0x12183, offset: 0x12183, size: 0x8, addend: 0x0, symName: __ZNKSt3__114__split_bufferIPNS_6vectorIiNS_9allocatorIiEEEERNS2_IS5_EEE8capacityB8ue170006Ev, symObjAddr: 0x68C0, symBinAddr: 0x10000907C, symSize: 0x40 }
  - { offsetInCU: 0x121A9, offset: 0x121A9, size: 0x8, addend: 0x0, symName: __ZNSt3__114__split_bufferIPNS_6vectorIiNS_9allocatorIiEEEERNS2_IS5_EEE17__destruct_at_endB8ue170006EPS5_, symObjAddr: 0x6900, symBinAddr: 0x1000090BC, symSize: 0x2C }
  - { offsetInCU: 0x121DD, offset: 0x121DD, size: 0x8, addend: 0x0, symName: __ZNSt3__114__split_bufferIPNS_6vectorIiNS_9allocatorIiEEEERNS2_IS5_EEE17__destruct_at_endB8ue170006EPS5_NS_17integral_constantIbLb0EEE, symObjAddr: 0x692C, symBinAddr: 0x1000090E8, symSize: 0x94 }
  - { offsetInCU: 0x1221D, offset: 0x1221D, size: 0x8, addend: 0x0, symName: __ZNKSt3__114__split_bufferIPNS_6vectorIiNS_9allocatorIiEEEERNS2_IS5_EEE9__end_capB8ue170006Ev, symObjAddr: 0x69C0, symBinAddr: 0x10000917C, symSize: 0x28 }
  - { offsetInCU: 0x12243, offset: 0x12243, size: 0x8, addend: 0x0, symName: __ZNKSt3__117__compressed_pairIPPNS_6vectorIiNS_9allocatorIiEEEERNS2_IS5_EEE5firstB8ue170006Ev, symObjAddr: 0x69E8, symBinAddr: 0x1000091A4, symSize: 0x24 }
  - { offsetInCU: 0x12269, offset: 0x12269, size: 0x8, addend: 0x0, symName: __ZNSt3__19allocatorINS_6vectorIiNS0_IiEEEEE9constructB8ue170006IS3_JRKS3_EEEvPT_DpOT0_, symObjAddr: 0x6A0C, symBinAddr: 0x1000091C8, symSize: 0x30 }
  - { offsetInCU: 0x122BF, offset: 0x122BF, size: 0x8, addend: 0x0, symName: __ZNSt3__15dequeINS_6vectorIiNS_9allocatorIiEEEENS2_IS4_EEE5frontEv, symObjAddr: 0x6A3C, symBinAddr: 0x1000091F8, symSize: 0x58 }
  - { offsetInCU: 0x122E7, offset: 0x122E7, size: 0x8, addend: 0x0, symName: __ZNSt3__16vectorIiNS_9allocatorIiEEEC2ERKS3_, symObjAddr: 0x6A94, symBinAddr: 0x100009250, symSize: 0x94 }
  - { offsetInCU: 0x12322, offset: 0x12322, size: 0x8, addend: 0x0, symName: __ZNSt3__116allocator_traitsINS_9allocatorIiEEE37select_on_container_copy_constructionB8ue170006IS2_vvEES2_RKS2_, symObjAddr: 0x6B28, symBinAddr: 0x1000092E4, symSize: 0x10 }
  - { offsetInCU: 0x12356, offset: 0x12356, size: 0x8, addend: 0x0, symName: __ZNSt3__117__compressed_pairIPiNS_9allocatorIiEEEC1B8ue170006IDnS3_EEOT_OT0_, symObjAddr: 0x6B38, symBinAddr: 0x1000092F4, symSize: 0x3C }
  - { offsetInCU: 0x123AE, offset: 0x123AE, size: 0x8, addend: 0x0, symName: __ZNSt3__16vectorIiNS_9allocatorIiEEE16__init_with_sizeB8ue170006IPiS5_EEvT_T0_m, symObjAddr: 0x6B74, symBinAddr: 0x100009330, symSize: 0xC0 }
  - { offsetInCU: 0x12422, offset: 0x12422, size: 0x8, addend: 0x0, symName: __ZNSt3__117__compressed_pairIPiNS_9allocatorIiEEEC2B8ue170006IDnS3_EEOT_OT0_, symObjAddr: 0x6C34, symBinAddr: 0x1000093F0, symSize: 0x44 }
  - { offsetInCU: 0x1247A, offset: 0x1247A, size: 0x8, addend: 0x0, symName: __ZNSt3__122__compressed_pair_elemINS_9allocatorIiEELi1ELb1EEC2B8ue170006IS2_vEEOT_, symObjAddr: 0x6C78, symBinAddr: 0x100009434, symSize: 0x18 }
  - { offsetInCU: 0x124BC, offset: 0x124BC, size: 0x8, addend: 0x0, symName: __ZNSt3__16vectorIiNS_9allocatorIiEEE11__vallocateB8ue170006Em, symObjAddr: 0x6CD0, symBinAddr: 0x10000948C, symSize: 0xAC }
  - { offsetInCU: 0x12500, offset: 0x12500, size: 0x8, addend: 0x0, symName: __ZNSt3__16vectorIiNS_9allocatorIiEEE18__construct_at_endIPiS5_EEvT_T0_m, symObjAddr: 0x6D7C, symBinAddr: 0x100009538, symSize: 0x94 }
  - { offsetInCU: 0x12576, offset: 0x12576, size: 0x8, addend: 0x0, symName: __ZNSt3__128__exception_guard_exceptionsINS_6vectorIiNS_9allocatorIiEEE16__destroy_vectorEE10__completeB8ue170006Ev, symObjAddr: 0x6E10, symBinAddr: 0x1000095CC, symSize: 0x1C }
  - { offsetInCU: 0x1259C, offset: 0x1259C, size: 0x8, addend: 0x0, symName: __ZNSt3__128__exception_guard_exceptionsINS_6vectorIiNS_9allocatorIiEEE16__destroy_vectorEED1B8ue170006Ev, symObjAddr: 0x6E2C, symBinAddr: 0x1000095E8, symSize: 0x2C }
  - { offsetInCU: 0x125C6, offset: 0x125C6, size: 0x8, addend: 0x0, symName: __ZNSt3__128__exception_guard_exceptionsINS_6vectorIiNS_9allocatorIiEEE16__destroy_vectorEEC1B8ue170006ES5_, symObjAddr: 0x6E58, symBinAddr: 0x100009614, symSize: 0x34 }
  - { offsetInCU: 0x125FE, offset: 0x125FE, size: 0x8, addend: 0x0, symName: __ZNSt3__128__exception_guard_exceptionsINS_6vectorIiNS_9allocatorIiEEE16__destroy_vectorEEC2B8ue170006ES5_, symObjAddr: 0x6E8C, symBinAddr: 0x100009648, symSize: 0x24 }
  - { offsetInCU: 0x1264F, offset: 0x1264F, size: 0x8, addend: 0x0, symName: __ZNSt3__14pairIPiS1_EC1B8ue170006ERKS1_S4_, symObjAddr: 0x7138, symBinAddr: 0x1000098F4, symSize: 0x3C }
  - { offsetInCU: 0x12695, offset: 0x12695, size: 0x8, addend: 0x0, symName: __ZNSt3__14pairIPiS1_EC2B8ue170006ERKS1_S4_, symObjAddr: 0x7174, symBinAddr: 0x100009930, symSize: 0x34 }
  - { offsetInCU: 0x126DB, offset: 0x126DB, size: 0x8, addend: 0x0, symName: __ZNSt3__129_AllocatorDestroyRangeReverseINS_9allocatorIiEEPiEC1B8ue170006ERS2_RS3_S6_, symObjAddr: 0x71F4, symBinAddr: 0x1000099B0, symSize: 0x44 }
  - { offsetInCU: 0x12732, offset: 0x12732, size: 0x8, addend: 0x0, symName: __ZNSt3__116allocator_traitsINS_9allocatorIiEEE9constructB8ue170006IiJRiEvEEvRS2_PT_DpOT0_, symObjAddr: 0x7238, symBinAddr: 0x1000099F4, symSize: 0x34 }
  - { offsetInCU: 0x12789, offset: 0x12789, size: 0x8, addend: 0x0, symName: __ZNSt3__128__exception_guard_exceptionsINS_29_AllocatorDestroyRangeReverseINS_9allocatorIiEEPiEEE10__completeB8ue170006Ev, symObjAddr: 0x726C, symBinAddr: 0x100009A28, symSize: 0x1C }
  - { offsetInCU: 0x127AF, offset: 0x127AF, size: 0x8, addend: 0x0, symName: __ZNSt3__128__exception_guard_exceptionsINS_29_AllocatorDestroyRangeReverseINS_9allocatorIiEEPiEEED1B8ue170006Ev, symObjAddr: 0x7288, symBinAddr: 0x100009A44, symSize: 0x2C }
  - { offsetInCU: 0x127D9, offset: 0x127D9, size: 0x8, addend: 0x0, symName: __ZNSt3__128__exception_guard_exceptionsINS_29_AllocatorDestroyRangeReverseINS_9allocatorIiEEPiEEEC1B8ue170006ES5_, symObjAddr: 0x72B4, symBinAddr: 0x100009A70, symSize: 0x34 }
  - { offsetInCU: 0x12812, offset: 0x12812, size: 0x8, addend: 0x0, symName: __ZNSt3__128__exception_guard_exceptionsINS_29_AllocatorDestroyRangeReverseINS_9allocatorIiEEPiEEEC2B8ue170006ES5_, symObjAddr: 0x72E8, symBinAddr: 0x100009AA4, symSize: 0x30 }
  - { offsetInCU: 0x1284B, offset: 0x1284B, size: 0x8, addend: 0x0, symName: __ZNSt3__129_AllocatorDestroyRangeReverseINS_9allocatorIiEEPiEC2B8ue170006ERS2_RS3_S6_, symObjAddr: 0x7318, symBinAddr: 0x100009AD4, symSize: 0x38 }
  - { offsetInCU: 0x128A2, offset: 0x128A2, size: 0x8, addend: 0x0, symName: __ZNSt3__19allocatorIiE9constructB8ue170006IiJRiEEEvPT_DpOT0_, symObjAddr: 0x7350, symBinAddr: 0x100009B0C, symSize: 0x28 }
  - { offsetInCU: 0x128F8, offset: 0x128F8, size: 0x8, addend: 0x0, symName: __ZNSt3__128__exception_guard_exceptionsINS_29_AllocatorDestroyRangeReverseINS_9allocatorIiEEPiEEED2B8ue170006Ev, symObjAddr: 0x7378, symBinAddr: 0x100009B34, symSize: 0x48 }
  - { offsetInCU: 0x12922, offset: 0x12922, size: 0x8, addend: 0x0, symName: __ZNKSt3__129_AllocatorDestroyRangeReverseINS_9allocatorIiEEPiEclB8ue170006Ev, symObjAddr: 0x73C0, symBinAddr: 0x100009B7C, symSize: 0x68 }
  - { offsetInCU: 0x12948, offset: 0x12948, size: 0x8, addend: 0x0, symName: __ZNSt3__118__unwrap_iter_implIPiLb1EE8__unwrapB8ue170006ES1_, symObjAddr: 0x7498, symBinAddr: 0x100009C54, symSize: 0x24 }
  - { offsetInCU: 0x1296B, offset: 0x1296B, size: 0x8, addend: 0x0, symName: __ZNSt3__118__unwrap_iter_implIPiLb1EE8__rewrapB8ue170006ES1_S1_, symObjAddr: 0x74BC, symBinAddr: 0x100009C78, symSize: 0x50 }
  - { offsetInCU: 0x1299C, offset: 0x1299C, size: 0x8, addend: 0x0, symName: __ZNSt3__128__exception_guard_exceptionsINS_6vectorIiNS_9allocatorIiEEE16__destroy_vectorEED2B8ue170006Ev, symObjAddr: 0x750C, symBinAddr: 0x100009CC8, symSize: 0x48 }
  - { offsetInCU: 0x129C6, offset: 0x129C6, size: 0x8, addend: 0x0, symName: __ZNSt3__15dequeINS_6vectorIiNS_9allocatorIiEEEENS2_IS4_EEE9pop_frontEv, symObjAddr: 0x7554, symBinAddr: 0x100009D10, symSize: 0xDC }
  - { offsetInCU: 0x12A1B, offset: 0x12A1B, size: 0x8, addend: 0x0, symName: __ZNKSt3__15dequeINS_6vectorIiNS_9allocatorIiEEEENS2_IS4_EEE23__annotate_shrink_frontB8ue170006Emm, symObjAddr: 0x7630, symBinAddr: 0x100009DEC, symSize: 0x70 }
  - { offsetInCU: 0x12A5F, offset: 0x12A5F, size: 0x8, addend: 0x0, symName: __ZNSt3__15dequeINS_6vectorIiNS_9allocatorIiEEEENS2_IS4_EEE26__maybe_remove_front_spareB8ue170006Eb, symObjAddr: 0x76A0, symBinAddr: 0x100009E5C, symSize: 0xEC }
  - { offsetInCU: 0x12A94, offset: 0x12A94, size: 0x8, addend: 0x0, symName: __ZNKSt3__15dequeINS_6vectorIiNS_9allocatorIiEEEENS2_IS4_EEE20__front_spare_blocksB8ue170006Ev, symObjAddr: 0x778C, symBinAddr: 0x100009F48, symSize: 0x2C }
  - { offsetInCU: 0x12ABA, offset: 0x12ABA, size: 0x8, addend: 0x0, symName: __ZNKSt3__16__lessIvvEclB8ue170006IiiEEbRKT_RKT0_, symObjAddr: 0x780C, symBinAddr: 0x100009FC8, symSize: 0x34 }
  - { offsetInCU: 0x12B0E, offset: 0x12B0E, size: 0x8, addend: 0x0, symName: __ZNSt3__16vectorIiNS_9allocatorIiEEE11__make_iterB8ue170006EPi, symObjAddr: 0x7840, symBinAddr: 0x100009FFC, symSize: 0x30 }
  - { offsetInCU: 0x12B43, offset: 0x12B43, size: 0x8, addend: 0x0, symName: __ZNSt3__111__wrap_iterIPiEC1B8ue170006ES1_, symObjAddr: 0x7870, symBinAddr: 0x10000A02C, symSize: 0x34 }
  - { offsetInCU: 0x12B7B, offset: 0x12B7B, size: 0x8, addend: 0x0, symName: __ZNSt3__111__wrap_iterIPiEC2B8ue170006ES1_, symObjAddr: 0x78A4, symBinAddr: 0x10000A060, symSize: 0x20 }
  - { offsetInCU: 0x12BB3, offset: 0x12BB3, size: 0x8, addend: 0x0, symName: __ZNKSt3__111__wrap_iterIPiE4baseB8ue170006Ev, symObjAddr: 0x790C, symBinAddr: 0x10000A0C8, symSize: 0x18 }
  - { offsetInCU: 0x12BD9, offset: 0x12BD9, size: 0x8, addend: 0x0, symName: __ZNSt3__111char_traitsIcE6lengthB8ue170006EPKc, symObjAddr: 0x7B18, symBinAddr: 0x10000A2D4, symSize: 0x48 }
  - { offsetInCU: 0x12C1A, offset: 0x12C1A, size: 0x8, addend: 0x0, symName: __ZNKSt3__113basic_ostreamIcNS_11char_traitsIcEEE6sentrycvbB8ue170006Ev, symObjAddr: 0x7B60, symBinAddr: 0x10000A31C, symSize: 0x1C }
  - { offsetInCU: 0x12C40, offset: 0x12C40, size: 0x8, addend: 0x0, symName: __ZNSt3__119ostreambuf_iteratorIcNS_11char_traitsIcEEEC1B8ue170006ERNS_13basic_ostreamIcS2_EE, symObjAddr: 0x7DC4, symBinAddr: 0x10000A580, symSize: 0x34 }
  - { offsetInCU: 0x12C78, offset: 0x12C78, size: 0x8, addend: 0x0, symName: __ZNKSt3__18ios_base5flagsB8ue170006Ev, symObjAddr: 0x7DF8, symBinAddr: 0x10000A5B4, symSize: 0x18 }
  - { offsetInCU: 0x12CA0, offset: 0x12CA0, size: 0x8, addend: 0x0, symName: __ZNKSt3__19basic_iosIcNS_11char_traitsIcEEE4fillB8ue170006Ev, symObjAddr: 0x7E10, symBinAddr: 0x10000A5CC, symSize: 0x64 }
  - { offsetInCU: 0x12CC8, offset: 0x12CC8, size: 0x8, addend: 0x0, symName: __ZNKSt3__119ostreambuf_iteratorIcNS_11char_traitsIcEEE6failedB8ue170006Ev, symObjAddr: 0x7E74, symBinAddr: 0x10000A630, symSize: 0x24 }
  - { offsetInCU: 0x12CEE, offset: 0x12CEE, size: 0x8, addend: 0x0, symName: __ZNSt3__19basic_iosIcNS_11char_traitsIcEEE8setstateB8ue170006Ej, symObjAddr: 0x7E98, symBinAddr: 0x10000A654, symSize: 0x2C }
  - { offsetInCU: 0x12D23, offset: 0x12D23, size: 0x8, addend: 0x0, symName: __ZNKSt3__18ios_base5widthB8ue170006Ev, symObjAddr: 0x7EC4, symBinAddr: 0x10000A680, symSize: 0x18 }
  - { offsetInCU: 0x12D4B, offset: 0x12D4B, size: 0x8, addend: 0x0, symName: __ZNSt3__115basic_streambufIcNS_11char_traitsIcEEE5sputnB8ue170006EPKcl, symObjAddr: 0x7EDC, symBinAddr: 0x10000A698, symSize: 0x3C }
  - { offsetInCU: 0x12D8D, offset: 0x12D8D, size: 0x8, addend: 0x0, symName: __ZNSt3__112basic_stringIcNS_11char_traitsIcEENS_9allocatorIcEEEC1B8ue170006Emc, symObjAddr: 0x7F18, symBinAddr: 0x10000A6D4, symSize: 0x3C }
  - { offsetInCU: 0x12DD5, offset: 0x12DD5, size: 0x8, addend: 0x0, symName: __ZNKSt3__112basic_stringIcNS_11char_traitsIcEENS_9allocatorIcEEE4dataB8ue170006Ev, symObjAddr: 0x7F54, symBinAddr: 0x10000A710, symSize: 0x28 }
  - { offsetInCU: 0x12DFB, offset: 0x12DFB, size: 0x8, addend: 0x0, symName: __ZNSt3__18ios_base5widthB8ue170006El, symObjAddr: 0x7F7C, symBinAddr: 0x10000A738, symSize: 0x2C }
  - { offsetInCU: 0x12E41, offset: 0x12E41, size: 0x8, addend: 0x0, symName: __ZNSt3__112basic_stringIcNS_11char_traitsIcEENS_9allocatorIcEEEC2B8ue170006Emc, symObjAddr: 0x7FA8, symBinAddr: 0x10000A764, symSize: 0x4C }
  - { offsetInCU: 0x12E89, offset: 0x12E89, size: 0x8, addend: 0x0, symName: __ZNSt3__117__compressed_pairINS_12basic_stringIcNS_11char_traitsIcEENS_9allocatorIcEEE5__repES5_EC1B8ue170006INS_18__default_init_tagESA_EEOT_OT0_, symObjAddr: 0x7FF4, symBinAddr: 0x10000A7B0, symSize: 0x3C }
  - { offsetInCU: 0x12EE1, offset: 0x12EE1, size: 0x8, addend: 0x0, symName: __ZNSt3__117__compressed_pairINS_12basic_stringIcNS_11char_traitsIcEENS_9allocatorIcEEE5__repES5_EC2B8ue170006INS_18__default_init_tagESA_EEOT_OT0_, symObjAddr: 0x8030, symBinAddr: 0x10000A7EC, symSize: 0x3C }
  - { offsetInCU: 0x12F39, offset: 0x12F39, size: 0x8, addend: 0x0, symName: __ZNSt3__122__compressed_pair_elemINS_12basic_stringIcNS_11char_traitsIcEENS_9allocatorIcEEE5__repELi0ELb0EEC2B8ue170006ENS_18__default_init_tagE, symObjAddr: 0x806C, symBinAddr: 0x10000A828, symSize: 0x14 }
  - { offsetInCU: 0x12F6D, offset: 0x12F6D, size: 0x8, addend: 0x0, symName: __ZNSt3__122__compressed_pair_elemINS_9allocatorIcEELi1ELb1EEC2B8ue170006ENS_18__default_init_tagE, symObjAddr: 0x8080, symBinAddr: 0x10000A83C, symSize: 0x2C }
  - { offsetInCU: 0x12FA1, offset: 0x12FA1, size: 0x8, addend: 0x0, symName: __ZNSt3__19allocatorIcEC2B8ue170006Ev, symObjAddr: 0x80AC, symBinAddr: 0x10000A868, symSize: 0x2C }
  - { offsetInCU: 0x12FCB, offset: 0x12FCB, size: 0x8, addend: 0x0, symName: __ZNSt3__116__non_trivial_ifILb1ENS_9allocatorIcEEEC2B8ue170006Ev, symObjAddr: 0x80D8, symBinAddr: 0x10000A894, symSize: 0x14 }
  - { offsetInCU: 0x12FF5, offset: 0x12FF5, size: 0x8, addend: 0x0, symName: __ZNKSt3__112basic_stringIcNS_11char_traitsIcEENS_9allocatorIcEEE13__get_pointerB8ue170006Ev, symObjAddr: 0x8100, symBinAddr: 0x10000A8BC, symSize: 0x54 }
  - { offsetInCU: 0x1301B, offset: 0x1301B, size: 0x8, addend: 0x0, symName: __ZNKSt3__112basic_stringIcNS_11char_traitsIcEENS_9allocatorIcEEE9__is_longB8ue170006Ev, symObjAddr: 0x8154, symBinAddr: 0x10000A910, symSize: 0x74 }
  - { offsetInCU: 0x13041, offset: 0x13041, size: 0x8, addend: 0x0, symName: __ZNKSt3__112basic_stringIcNS_11char_traitsIcEENS_9allocatorIcEEE18__get_long_pointerB8ue170006Ev, symObjAddr: 0x81C8, symBinAddr: 0x10000A984, symSize: 0x28 }
  - { offsetInCU: 0x13067, offset: 0x13067, size: 0x8, addend: 0x0, symName: __ZNKSt3__112basic_stringIcNS_11char_traitsIcEENS_9allocatorIcEEE19__get_short_pointerB8ue170006Ev, symObjAddr: 0x81F0, symBinAddr: 0x10000A9AC, symSize: 0x28 }
  - { offsetInCU: 0x1308D, offset: 0x1308D, size: 0x8, addend: 0x0, symName: __ZNKSt3__117__compressed_pairINS_12basic_stringIcNS_11char_traitsIcEENS_9allocatorIcEEE5__repES5_E5firstB8ue170006Ev, symObjAddr: 0x8218, symBinAddr: 0x10000A9D4, symSize: 0x24 }
  - { offsetInCU: 0x130B3, offset: 0x130B3, size: 0x8, addend: 0x0, symName: __ZNKSt3__122__compressed_pair_elemINS_12basic_stringIcNS_11char_traitsIcEENS_9allocatorIcEEE5__repELi0ELb0EE5__getB8ue170006Ev, symObjAddr: 0x823C, symBinAddr: 0x10000A9F8, symSize: 0x14 }
  - { offsetInCU: 0x130D9, offset: 0x130D9, size: 0x8, addend: 0x0, symName: __ZNSt3__114pointer_traitsIPKcE10pointer_toB8ue170006ERS1_, symObjAddr: 0x8250, symBinAddr: 0x10000AA0C, symSize: 0x14 }
  - { offsetInCU: 0x130FC, offset: 0x130FC, size: 0x8, addend: 0x0, symName: __ZNSt3__119ostreambuf_iteratorIcNS_11char_traitsIcEEEC2B8ue170006ERNS_13basic_ostreamIcS2_EE, symObjAddr: 0x8264, symBinAddr: 0x10000AA20, symSize: 0x68 }
  - { offsetInCU: 0x13134, offset: 0x13134, size: 0x8, addend: 0x0, symName: __ZNKSt3__19basic_iosIcNS_11char_traitsIcEEE5rdbufB8ue170006Ev, symObjAddr: 0x82CC, symBinAddr: 0x10000AA88, symSize: 0x24 }
  - { offsetInCU: 0x1315C, offset: 0x1315C, size: 0x8, addend: 0x0, symName: __ZNKSt3__18ios_base5rdbufB8ue170006Ev, symObjAddr: 0x82F0, symBinAddr: 0x10000AAAC, symSize: 0x18 }
  - { offsetInCU: 0x13182, offset: 0x13182, size: 0x8, addend: 0x0, symName: __ZNSt3__111char_traitsIcE11eq_int_typeB8ue170006Eii, symObjAddr: 0x8308, symBinAddr: 0x10000AAC4, symSize: 0x28 }
  - { offsetInCU: 0x131B5, offset: 0x131B5, size: 0x8, addend: 0x0, symName: __ZNSt3__111char_traitsIcE3eofB8ue170006Ev, symObjAddr: 0x8330, symBinAddr: 0x10000AAEC, symSize: 0x8 }
  - { offsetInCU: 0x131C9, offset: 0x131C9, size: 0x8, addend: 0x0, symName: __ZNKSt3__19basic_iosIcNS_11char_traitsIcEEE5widenB8ue170006Ec, symObjAddr: 0x8338, symBinAddr: 0x10000AAF4, symSize: 0x8C }
  - { offsetInCU: 0x13232, offset: 0x13232, size: 0x8, addend: 0x0, symName: __ZNKSt3__15ctypeIcE5widenB8ue170006Ec, symObjAddr: 0x83F0, symBinAddr: 0x10000ABAC, symSize: 0x38 }
  - { offsetInCU: 0x13267, offset: 0x13267, size: 0x8, addend: 0x0, symName: __ZNSt3__18ios_base8setstateB8ue170006Ej, symObjAddr: 0x8428, symBinAddr: 0x10000ABE4, symSize: 0x34 }
  - { offsetInCU: 0x1329E, offset: 0x1329E, size: 0x8, addend: 0x0, symName: __ZNSt3__18_IterOpsINS_17_ClassicAlgPolicyEE4nextB8ue170006INS_11__wrap_iterIPiEEEET_S7_S7_, symObjAddr: 0x86B8, symBinAddr: 0x10000AE74, symSize: 0x20 }
  - { offsetInCU: 0x132D4, offset: 0x132D4, size: 0x8, addend: 0x0, symName: __ZNSt3__111__wrap_iterIPiEmmB8ue170006Ev, symObjAddr: 0x86D8, symBinAddr: 0x10000AE94, symSize: 0x20 }
  - { offsetInCU: 0x1331D, offset: 0x1331D, size: 0x8, addend: 0x0, symName: __ZNSt3__14pairINS_11__wrap_iterIPiEEbEC1B8ue170006ERKS3_RKb, symObjAddr: 0x86F8, symBinAddr: 0x10000AEB4, symSize: 0x3C }
  - { offsetInCU: 0x13363, offset: 0x13363, size: 0x8, addend: 0x0, symName: __ZNSt3__18_IterOpsINS_17_ClassicAlgPolicyEE9iter_swapB8ue170006IRNS_11__wrap_iterIPiEES7_EEvOT_OT0_, symObjAddr: 0x8734, symBinAddr: 0x10000AEF0, symSize: 0x44 }
  - { offsetInCU: 0x133A6, offset: 0x133A6, size: 0x8, addend: 0x0, symName: __ZNSt3__14pairINS_11__wrap_iterIPiEEbEC2B8ue170006ERKS3_RKb, symObjAddr: 0x87B4, symBinAddr: 0x10000AF70, symSize: 0x38 }
  - { offsetInCU: 0x133EC, offset: 0x133EC, size: 0x8, addend: 0x0, symName: __ZNSt3__16vectorIiNS_9allocatorIiEEE22__construct_one_at_endB8ue170006IJRKiEEEvDpOT_, symObjAddr: 0x893C, symBinAddr: 0x10000B0F8, symSize: 0x98 }
  - { offsetInCU: 0x1343B, offset: 0x1343B, size: 0x8, addend: 0x0, symName: __ZNSt3__16vectorIiNS_9allocatorIiEEE21__push_back_slow_pathIRKiEEvOT_, symObjAddr: 0x89D4, symBinAddr: 0x10000B190, symSize: 0xE0 }
  - { offsetInCU: 0x13499, offset: 0x13499, size: 0x8, addend: 0x0, symName: __ZNSt3__116allocator_traitsINS_9allocatorIiEEE9constructB8ue170006IiJRKiEvEEvRS2_PT_DpOT0_, symObjAddr: 0x8AB4, symBinAddr: 0x10000B270, symSize: 0x34 }
  - { offsetInCU: 0x134F0, offset: 0x134F0, size: 0x8, addend: 0x0, symName: __ZNSt3__19allocatorIiE9constructB8ue170006IiJRKiEEEvPT_DpOT0_, symObjAddr: 0x8AE8, symBinAddr: 0x10000B2A4, symSize: 0x28 }
...
