---
triple:          'arm64-apple-darwin'
binary-path:     "/Users/parkseonggeun/Desktop/스터디내용/2024_3_1_algorithm_study/2024_상반기_스터디/week3/output/BOJ_15686_phd0801"
relocations:
  - { offsetInCU: 0x3F, offset: 0x3F, size: 0x8, addend: 0x0, symName: _N, symObjAddr: 0x33638, symBinAddr: 0x10000C020, symSize: 0x0 }
  - { offsetInCU: 0x5B, offset: 0x5B, size: 0x8, addend: 0x0, symName: _M, symObjAddr: 0x3363C, symBinAddr: 0x10000C024, symSize: 0x0 }
  - { offsetInCU: 0x70, offset: 0x70, size: 0x8, addend: 0x0, symName: _res, symObjAddr: 0x33640, symBinAddr: 0x10000C028, symSize: 0x0 }
  - { offsetInCU: 0x85, offset: 0x85, size: 0x8, addend: 0x0, symName: _cnt, symObjAddr: 0x33644, symBinAddr: 0x10000C02C, symSize: 0x0 }
  - { offsetInCU: 0x9A, offset: 0x9A, size: 0x8, addend: 0x0, symName: _MAP, symObjAddr: 0x33648, symBinAddr: 0x10000C030, symSize: 0x0 }
  - { offsetInCU: 0xC8, offset: 0xC8, size: 0x8, addend: 0x0, symName: _visited, symObjAddr: 0x35EEC, symBinAddr: 0x10000E8D4, symSize: 0x0 }
  - { offsetInCU: 0xF6, offset: 0xF6, size: 0x8, addend: 0x0, symName: _checked, symObjAddr: 0x36918, symBinAddr: 0x10000F300, symSize: 0x0 }
  - { offsetInCU: 0x10B, offset: 0x10B, size: 0x8, addend: 0x0, symName: _dx, symObjAddr: 0x5C1C, symBinAddr: 0x10000C000, symSize: 0x0 }
  - { offsetInCU: 0x12C, offset: 0x12C, size: 0x8, addend: 0x0, symName: _dy, symObjAddr: 0x5C2C, symBinAddr: 0x10000C010, symSize: 0x0 }
  - { offsetInCU: 0x52E4, offset: 0x52E4, size: 0x8, addend: 0x0, symName: __ZNSt3__124__put_character_sequenceB8ue170006IcNS_11char_traitsIcEEEERNS_13basic_ostreamIT_T0_EES7_PKS4_m, symObjAddr: 0x4E00, symBinAddr: 0x100006CAC, symSize: 0x1F4 }
  - { offsetInCU: 0x6DE0, offset: 0x6DE0, size: 0x8, addend: 0x0, symName: __ZNSt3__19make_pairB8ue170006IRiS1_EENS_4pairINS_18__unwrap_ref_decayIT_E4typeENS3_IT0_E4typeEEEOS4_OS7_, symObjAddr: 0x378, symBinAddr: 0x100002224, symSize: 0x34 }
  - { offsetInCU: 0x6E2F, offset: 0x6E2F, size: 0x8, addend: 0x0, symName: __ZNSt3__1lsB8ue170006INS_11char_traitsIcEEEERNS_13basic_ostreamIcT_EES6_PKc, symObjAddr: 0x7A8, symBinAddr: 0x100002654, symSize: 0x48 }
  - { offsetInCU: 0x6E75, offset: 0x6E75, size: 0x8, addend: 0x0, symName: __ZNSt3__1neB8ue170006ERKNS_16__deque_iteratorINS_4pairIiiEEPS2_RS2_PS3_lLl512EEES8_, symObjAddr: 0xDBC, symBinAddr: 0x100002C68, symSize: 0x34 }
  - { offsetInCU: 0x6EB2, offset: 0x6EB2, size: 0x8, addend: 0x0, symName: __ZNSt3__1eqB8ue170006ERKNS_16__deque_iteratorINS_4pairIiiEEPS2_RS2_PS3_lLl512EEES8_, symObjAddr: 0x1108, symBinAddr: 0x100002FB4, symSize: 0x30 }
  - { offsetInCU: 0x6EEF, offset: 0x6EEF, size: 0x8, addend: 0x0, symName: __ZNSt3__112__to_addressB8ue170006INS_4pairIiiEEEEPT_S4_, symObjAddr: 0x1798, symBinAddr: 0x100003644, symSize: 0x14 }
  - { offsetInCU: 0x6F24, offset: 0x6F24, size: 0x8, addend: 0x0, symName: __ZNSt3__130__libcpp_is_constant_evaluatedB8ue170006Ev, symObjAddr: 0x1934, symBinAddr: 0x1000037E0, symSize: 0xC }
  - { offsetInCU: 0x6F41, offset: 0x6F41, size: 0x8, addend: 0x0, symName: __ZNSt3__119__libcpp_deallocateB8ue170006EPvmm, symObjAddr: 0x1940, symBinAddr: 0x1000037EC, symSize: 0x30 }
  - { offsetInCU: 0x6F89, offset: 0x6F89, size: 0x8, addend: 0x0, symName: __ZNSt3__127__do_deallocate_handle_sizeB8ue170006IJEEEvPvmDpT_, symObjAddr: 0x1970, symBinAddr: 0x10000381C, symSize: 0x28 }
  - { offsetInCU: 0x6FC7, offset: 0x6FC7, size: 0x8, addend: 0x0, symName: __ZNSt3__124__libcpp_operator_deleteB8ue170006IJPvEEEvDpT_, symObjAddr: 0x1998, symBinAddr: 0x100003844, symSize: 0x24 }
  - { offsetInCU: 0x6FFC, offset: 0x6FFC, size: 0x8, addend: 0x0, symName: __ZNSt3__112__to_addressB8ue170006IPNS_4pairIiiEEEEPT_S5_, symObjAddr: 0x1C24, symBinAddr: 0x100003AD0, symSize: 0x14 }
  - { offsetInCU: 0x7031, offset: 0x7031, size: 0x8, addend: 0x0, symName: __ZNSt3__13maxB8ue170006ImEERKT_S3_S3_, symObjAddr: 0x2DF8, symBinAddr: 0x100004CA4, symSize: 0x2C }
  - { offsetInCU: 0x74FD, offset: 0x74FD, size: 0x8, addend: 0x0, symName: __ZNSt3__14swapB8ue170006IPPNS_4pairIiiEEEEvRT_S6_, symObjAddr: 0x3428, symBinAddr: 0x1000052D4, symSize: 0x3C }
  - { offsetInCU: 0x754E, offset: 0x754E, size: 0x8, addend: 0x0, symName: __ZNSt3__14moveB8ue170006IPPNS_4pairIiiEES4_EET0_T_S6_S5_, symObjAddr: 0x350C, symBinAddr: 0x1000053B8, symSize: 0x40 }
  - { offsetInCU: 0x75C4, offset: 0x75C4, size: 0x8, addend: 0x0, symName: __ZNSt3__16__moveB8ue170006INS_17_ClassicAlgPolicyEPPNS_4pairIiiEES5_S5_EENS2_IT0_T2_EES6_T1_S7_, symObjAddr: 0x3614, symBinAddr: 0x1000054C0, symSize: 0x44 }
  - { offsetInCU: 0x7630, offset: 0x7630, size: 0x8, addend: 0x0, symName: __ZNSt3__123__dispatch_copy_or_moveB8ue170006INS_17_ClassicAlgPolicyENS_11__move_loopIS1_EENS_14__move_trivialEPPNS_4pairIiiEES8_S8_EENS5_IT2_T4_EES9_T3_SA_, symObjAddr: 0x3658, symBinAddr: 0x100005504, symSize: 0x44 }
  - { offsetInCU: 0x76AE, offset: 0x76AE, size: 0x8, addend: 0x0, symName: __ZNSt3__121__unwrap_and_dispatchB8ue170006INS_10__overloadINS_11__move_loopINS_17_ClassicAlgPolicyEEENS_14__move_trivialEEEPPNS_4pairIiiEESA_SA_Li0EEENS7_IT0_T2_EESB_T1_SC_, symObjAddr: 0x369C, symBinAddr: 0x100005548, symSize: 0xB4 }
  - { offsetInCU: 0x773C, offset: 0x773C, size: 0x8, addend: 0x0, symName: __ZNSt3__114__unwrap_rangeB8ue170006IPPNS_4pairIiiEES4_EENS1_IT0_S5_EET_S7_, symObjAddr: 0x3750, symBinAddr: 0x1000055FC, symSize: 0x60 }
  - { offsetInCU: 0x787B, offset: 0x787B, size: 0x8, addend: 0x0, symName: __ZNSt3__113__unwrap_iterB8ue170006IPPNS_4pairIiiEENS_18__unwrap_iter_implIS4_Lb1EEELi0EEEDTclsrT0_8__unwrapclsr3stdE7declvalIT_EEEES8_, symObjAddr: 0x37F8, symBinAddr: 0x1000056A4, symSize: 0x24 }
  - { offsetInCU: 0x78BF, offset: 0x78BF, size: 0x8, addend: 0x0, symName: __ZNSt3__19make_pairB8ue170006IPPNS_4pairIiiEES4_EENS1_INS_18__unwrap_ref_decayIT_E4typeENS5_IT0_E4typeEEEOS6_OS9_, symObjAddr: 0x381C, symBinAddr: 0x1000056C8, symSize: 0x38 }
  - { offsetInCU: 0x790E, offset: 0x790E, size: 0x8, addend: 0x0, symName: __ZNSt3__114__rewrap_rangeB8ue170006IPPNS_4pairIiiEES4_EET_S5_T0_, symObjAddr: 0x3854, symBinAddr: 0x100005700, symSize: 0x2C }
  - { offsetInCU: 0x795A, offset: 0x795A, size: 0x8, addend: 0x0, symName: __ZNSt3__113__rewrap_iterB8ue170006IPPNS_4pairIiiEES4_NS_18__unwrap_iter_implIS4_Lb1EEEEET_S7_T0_, symObjAddr: 0x3880, symBinAddr: 0x10000572C, symSize: 0x50 }
  - { offsetInCU: 0x79AF, offset: 0x79AF, size: 0x8, addend: 0x0, symName: __ZNSt3__119__copy_trivial_implB8ue170006IPNS_4pairIiiEES3_EENS1_IPT_PT0_EES5_S5_S7_, symObjAddr: 0x38D0, symBinAddr: 0x10000577C, symSize: 0x80 }
  - { offsetInCU: 0x7A17, offset: 0x7A17, size: 0x8, addend: 0x0, symName: __ZNSt3__119__constexpr_memmoveB8ue170006IPNS_4pairIiiEES3_Li0EEEPT_S5_PT0_NS_15__element_countE, symObjAddr: 0x3950, symBinAddr: 0x1000057FC, symSize: 0xA0 }
  - { offsetInCU: 0x7A85, offset: 0x7A85, size: 0x8, addend: 0x0, symName: __ZNSt3__19make_pairB8ue170006IRPPNS_4pairIiiEES4_EENS1_INS_18__unwrap_ref_decayIT_E4typeENS6_IT0_E4typeEEEOS7_OSA_, symObjAddr: 0x39F0, symBinAddr: 0x10000589C, symSize: 0x38 }
  - { offsetInCU: 0x7B27, offset: 0x7B27, size: 0x8, addend: 0x0, symName: __ZNSt3__18distanceB8ue170006INS_13move_iteratorIPPNS_4pairIiiEEEEEENS_15iterator_traitsIT_E15difference_typeES8_S8_, symObjAddr: 0x3BF0, symBinAddr: 0x100005A9C, symSize: 0x3C }
  - { offsetInCU: 0x7B6A, offset: 0x7B6A, size: 0x8, addend: 0x0, symName: __ZNSt3__110__distanceB8ue170006INS_13move_iteratorIPPNS_4pairIiiEEEEEENS_15iterator_traitsIT_E15difference_typeES8_S8_NS_26random_access_iterator_tagE, symObjAddr: 0x3DF4, symBinAddr: 0x100005CA0, symSize: 0x30 }
  - { offsetInCU: 0x7BB7, offset: 0x7BB7, size: 0x8, addend: 0x0, symName: __ZNSt3__1miB8ue170006IPPNS_4pairIiiEES4_EENS_13move_iteratorIT_E15difference_typeERKS7_RKNS5_IT0_EE, symObjAddr: 0x3E24, symBinAddr: 0x100005CD0, symSize: 0x48 }
  - { offsetInCU: 0x7C06, offset: 0x7C06, size: 0x8, addend: 0x0, symName: __ZNSt3__117__libcpp_allocateB8ue170006Emm, symObjAddr: 0x3FA8, symBinAddr: 0x100005E54, symSize: 0x28 }
  - { offsetInCU: 0x7C43, offset: 0x7C43, size: 0x8, addend: 0x0, symName: __ZNSt3__121__libcpp_operator_newB8ue170006IJmEEEPvDpT_, symObjAddr: 0x3FE4, symBinAddr: 0x100005E90, symSize: 0x24 }
  - { offsetInCU: 0x7C7C, offset: 0x7C7C, size: 0x8, addend: 0x0, symName: __ZNSt3__113move_backwardB8ue170006IPPNS_4pairIiiEES4_EET0_T_S6_S5_, symObjAddr: 0x4008, symBinAddr: 0x100005EB4, symSize: 0x40 }
  - { offsetInCU: 0x7CD6, offset: 0x7CD6, size: 0x8, addend: 0x0, symName: __ZNSt3__115__move_backwardB8ue170006INS_17_ClassicAlgPolicyEPPNS_4pairIiiEES5_S5_EENS2_IT0_T2_EES6_T1_S7_, symObjAddr: 0x4048, symBinAddr: 0x100005EF4, symSize: 0x44 }
  - { offsetInCU: 0x7D42, offset: 0x7D42, size: 0x8, addend: 0x0, symName: __ZNSt3__123__dispatch_copy_or_moveB8ue170006INS_17_ClassicAlgPolicyENS_20__move_backward_loopIS1_EENS_23__move_backward_trivialEPPNS_4pairIiiEES8_S8_EENS5_IT2_T4_EES9_T3_SA_, symObjAddr: 0x408C, symBinAddr: 0x100005F38, symSize: 0x44 }
  - { offsetInCU: 0x7DC0, offset: 0x7DC0, size: 0x8, addend: 0x0, symName: __ZNSt3__121__unwrap_and_dispatchB8ue170006INS_10__overloadINS_20__move_backward_loopINS_17_ClassicAlgPolicyEEENS_23__move_backward_trivialEEEPPNS_4pairIiiEESA_SA_Li0EEENS7_IT0_T2_EESB_T1_SC_, symObjAddr: 0x40D0, symBinAddr: 0x100005F7C, symSize: 0xB4 }
  - { offsetInCU: 0x7E94, offset: 0x7E94, size: 0x8, addend: 0x0, symName: __ZNSt3__128__copy_backward_trivial_implB8ue170006IPNS_4pairIiiEES3_EENS1_IPT_PT0_EES5_S5_S7_, symObjAddr: 0x41CC, symBinAddr: 0x100006078, symSize: 0x90 }
  - { offsetInCU: 0x7EFC, offset: 0x7EFC, size: 0x8, addend: 0x0, symName: __ZNSt3__19make_pairB8ue170006IRPPNS_4pairIiiEES5_EENS1_INS_18__unwrap_ref_decayIT_E4typeENS6_IT0_E4typeEEEOS7_OSA_, symObjAddr: 0x425C, symBinAddr: 0x100006108, symSize: 0x38 }
  - { offsetInCU: 0x7F4B, offset: 0x7F4B, size: 0x8, addend: 0x0, symName: __ZNSt3__13maxB8ue170006ImNS_6__lessIvvEEEERKT_S5_S5_T0_, symObjAddr: 0x4294, symBinAddr: 0x100006140, symSize: 0x54 }
  - { offsetInCU: 0x7FEA, offset: 0x7FEA, size: 0x8, addend: 0x0, symName: __ZNSt3__119__allocate_at_leastB8ue170006INS_9allocatorIPNS_4pairIiiEEEEEENS_19__allocation_resultINS_16allocator_traitsIT_E7pointerEEERS8_m, symObjAddr: 0x442C, symBinAddr: 0x1000062D8, symSize: 0x40 }
  - { offsetInCU: 0x802D, offset: 0x802D, size: 0x8, addend: 0x0, symName: __ZNSt3__116__pad_and_outputB8ue170006IcNS_11char_traitsIcEEEENS_19ostreambuf_iteratorIT_T0_EES6_PKS4_S8_S8_RNS_8ios_baseES4_, symObjAddr: 0x5058, symBinAddr: 0x100006F04, symSize: 0x248 }
  - { offsetInCU: 0x80FC, offset: 0x80FC, size: 0x8, addend: 0x0, symName: __ZNSt3__112__to_addressB8ue170006IKcEEPT_S3_, symObjAddr: 0x55C8, symBinAddr: 0x100007474, symSize: 0x14 }
  - { offsetInCU: 0x8164, offset: 0x8164, size: 0x8, addend: 0x0, symName: __ZNSt3__19use_facetB8ue170006INS_5ctypeIcEEEERKT_RKNS_6localeE, symObjAddr: 0x58A0, symBinAddr: 0x10000774C, symSize: 0x2C }
  - { offsetInCU: 0x8631, offset: 0x8631, size: 0x8, addend: 0x0, symName: __ZNSt3__118__constexpr_strlenB8ue170006EPKc, symObjAddr: 0x5938, symBinAddr: 0x1000077E4, symSize: 0x24 }
  - { offsetInCU: 0x876E, offset: 0x876E, size: 0x8, addend: 0x0, symName: __ZSt28__throw_bad_array_new_lengthB8ue170006v, symObjAddr: 0x3F74, symBinAddr: 0x100005E20, symSize: 0x34 }
  - { offsetInCU: 0xB025, offset: 0xB025, size: 0x8, addend: 0x0, symName: __Z3bfsii, symObjAddr: 0x0, symBinAddr: 0x100001EAC, symSize: 0x320 }
  - { offsetInCU: 0xB0F4, offset: 0xB0F4, size: 0x8, addend: 0x0, symName: __ZNSt3__15queueINS_4pairIiiEENS_5dequeIS2_NS_9allocatorIS2_EEEEEC1B8ue170006Ev, symObjAddr: 0x320, symBinAddr: 0x1000021CC, symSize: 0x2C }
  - { offsetInCU: 0xB11E, offset: 0xB11E, size: 0x8, addend: 0x0, symName: __ZNSt3__15queueINS_4pairIiiEENS_5dequeIS2_NS_9allocatorIS2_EEEEE4pushB8ue170006ERKS2_, symObjAddr: 0x34C, symBinAddr: 0x1000021F8, symSize: 0x2C }
  - { offsetInCU: 0xB153, offset: 0xB153, size: 0x8, addend: 0x0, symName: __ZNKSt3__15queueINS_4pairIiiEENS_5dequeIS2_NS_9allocatorIS2_EEEEE5emptyB8ue170006Ev, symObjAddr: 0x3AC, symBinAddr: 0x100002258, symSize: 0x28 }
  - { offsetInCU: 0xB179, offset: 0xB179, size: 0x8, addend: 0x0, symName: __ZNSt3__15queueINS_4pairIiiEENS_5dequeIS2_NS_9allocatorIS2_EEEEE5frontB8ue170006Ev, symObjAddr: 0x3D4, symBinAddr: 0x100002280, symSize: 0x24 }
  - { offsetInCU: 0xB19F, offset: 0xB19F, size: 0x8, addend: 0x0, symName: __ZNSt3__15queueINS_4pairIiiEENS_5dequeIS2_NS_9allocatorIS2_EEEEE3popB8ue170006Ev, symObjAddr: 0x3F8, symBinAddr: 0x1000022A4, symSize: 0x24 }
  - { offsetInCU: 0xB1C5, offset: 0xB1C5, size: 0x8, addend: 0x0, symName: __ZNSt3__15queueINS_4pairIiiEENS_5dequeIS2_NS_9allocatorIS2_EEEEED1Ev, symObjAddr: 0x41C, symBinAddr: 0x1000022C8, symSize: 0x2C }
  - { offsetInCU: 0xB1F2, offset: 0xB1F2, size: 0x8, addend: 0x0, symName: _main, symObjAddr: 0x454, symBinAddr: 0x100002300, symSize: 0x354 }
  - { offsetInCU: 0xB2F5, offset: 0xB2F5, size: 0x8, addend: 0x0, symName: __ZNSt3__15queueINS_4pairIiiEENS_5dequeIS2_NS_9allocatorIS2_EEEEED2Ev, symObjAddr: 0x7F0, symBinAddr: 0x10000269C, symSize: 0x2C }
  - { offsetInCU: 0xB322, offset: 0xB322, size: 0x8, addend: 0x0, symName: __ZNSt3__15dequeINS_4pairIiiEENS_9allocatorIS2_EEED1B8ue170006Ev, symObjAddr: 0x81C, symBinAddr: 0x1000026C8, symSize: 0x2C }
  - { offsetInCU: 0xB34C, offset: 0xB34C, size: 0x8, addend: 0x0, symName: __ZNSt3__15dequeINS_4pairIiiEENS_9allocatorIS2_EEED2B8ue170006Ev, symObjAddr: 0x848, symBinAddr: 0x1000026F4, symSize: 0xA4 }
  - { offsetInCU: 0xB3A3, offset: 0xB3A3, size: 0x8, addend: 0x0, symName: __ZNSt3__15dequeINS_4pairIiiEENS_9allocatorIS2_EEE5clearEv, symObjAddr: 0x8EC, symBinAddr: 0x100002798, symSize: 0x1A8 }
  - { offsetInCU: 0xB407, offset: 0xB407, size: 0x8, addend: 0x0, symName: __ZNKSt3__15dequeINS_4pairIiiEENS_9allocatorIS2_EEE17__annotate_deleteB8ue170006Ev, symObjAddr: 0xA94, symBinAddr: 0x100002940, symSize: 0xE8 }
  - { offsetInCU: 0xB44B, offset: 0xB44B, size: 0x8, addend: 0x0, symName: __ZNSt3__114__split_bufferIPNS_4pairIiiEENS_9allocatorIS3_EEE5beginB8ue170006Ev, symObjAddr: 0xB7C, symBinAddr: 0x100002A28, symSize: 0x18 }
  - { offsetInCU: 0xB471, offset: 0xB471, size: 0x8, addend: 0x0, symName: __ZNSt3__114__split_bufferIPNS_4pairIiiEENS_9allocatorIS3_EEE3endB8ue170006Ev, symObjAddr: 0xB94, symBinAddr: 0x100002A40, symSize: 0x18 }
  - { offsetInCU: 0xB497, offset: 0xB497, size: 0x8, addend: 0x0, symName: __ZNSt3__116allocator_traitsINS_9allocatorINS_4pairIiiEEEEE10deallocateB8ue170006ERS4_PS3_m, symObjAddr: 0xBAC, symBinAddr: 0x100002A58, symSize: 0x34 }
  - { offsetInCU: 0xB4D9, offset: 0xB4D9, size: 0x8, addend: 0x0, symName: __ZNSt3__15dequeINS_4pairIiiEENS_9allocatorIS2_EEE7__allocB8ue170006Ev, symObjAddr: 0xBE0, symBinAddr: 0x100002A8C, symSize: 0x28 }
  - { offsetInCU: 0xB4FF, offset: 0xB4FF, size: 0x8, addend: 0x0, symName: __ZNSt3__114__split_bufferIPNS_4pairIiiEENS_9allocatorIS3_EEED1Ev, symObjAddr: 0xC08, symBinAddr: 0x100002AB4, symSize: 0x2C }
  - { offsetInCU: 0xB52B, offset: 0xB52B, size: 0x8, addend: 0x0, symName: __ZNSt3__15dequeINS_4pairIiiEENS_9allocatorIS2_EEE5beginB8ue170006Ev, symObjAddr: 0xC34, symBinAddr: 0x100002AE0, symSize: 0xCC }
  - { offsetInCU: 0xB560, offset: 0xB560, size: 0x8, addend: 0x0, symName: __ZNSt3__15dequeINS_4pairIiiEENS_9allocatorIS2_EEE3endB8ue170006Ev, symObjAddr: 0xD00, symBinAddr: 0x100002BAC, symSize: 0xBC }
  - { offsetInCU: 0xB5A4, offset: 0xB5A4, size: 0x8, addend: 0x0, symName: __ZNSt3__116allocator_traitsINS_9allocatorINS_4pairIiiEEEEE7destroyB8ue170006IS3_vEEvRS4_PT_, symObjAddr: 0xDF0, symBinAddr: 0x100002C9C, symSize: 0x2C }
  - { offsetInCU: 0xB5E1, offset: 0xB5E1, size: 0x8, addend: 0x0, symName: __ZNKSt3__116__deque_iteratorINS_4pairIiiEEPS2_RS2_PS3_lLl512EEdeB8ue170006Ev, symObjAddr: 0xE1C, symBinAddr: 0x100002CC8, symSize: 0x18 }
  - { offsetInCU: 0xB607, offset: 0xB607, size: 0x8, addend: 0x0, symName: __ZNSt3__116__deque_iteratorINS_4pairIiiEEPS2_RS2_PS3_lLl512EEppB8ue170006Ev, symObjAddr: 0xE34, symBinAddr: 0x100002CE0, symSize: 0x70 }
  - { offsetInCU: 0xB62D, offset: 0xB62D, size: 0x8, addend: 0x0, symName: __ZNSt3__15dequeINS_4pairIiiEENS_9allocatorIS2_EEE6__sizeB8ue170006Ev, symObjAddr: 0xEA4, symBinAddr: 0x100002D50, symSize: 0x28 }
  - { offsetInCU: 0xB653, offset: 0xB653, size: 0x8, addend: 0x0, symName: __ZNKSt3__114__split_bufferIPNS_4pairIiiEENS_9allocatorIS3_EEE4sizeB8ue170006Ev, symObjAddr: 0xECC, symBinAddr: 0x100002D78, symSize: 0x28 }
  - { offsetInCU: 0xB679, offset: 0xB679, size: 0x8, addend: 0x0, symName: __ZNSt3__114__split_bufferIPNS_4pairIiiEENS_9allocatorIS3_EEE5frontB8ue170006Ev, symObjAddr: 0xEF4, symBinAddr: 0x100002DA0, symSize: 0x18 }
  - { offsetInCU: 0xB69F, offset: 0xB69F, size: 0x8, addend: 0x0, symName: __ZNSt3__114__split_bufferIPNS_4pairIiiEENS_9allocatorIS3_EEE9pop_frontB8ue170006Ev, symObjAddr: 0xF0C, symBinAddr: 0x100002DB8, symSize: 0x2C }
  - { offsetInCU: 0xB6C5, offset: 0xB6C5, size: 0x8, addend: 0x0, symName: __ZNKSt3__15dequeINS_4pairIiiEENS_9allocatorIS2_EEE14__annotate_newB8ue170006Em, symObjAddr: 0xF38, symBinAddr: 0x100002DE4, symSize: 0xB8 }
  - { offsetInCU: 0xB6FA, offset: 0xB6FA, size: 0x8, addend: 0x0, symName: __ZNKSt3__114__split_bufferIPNS_4pairIiiEENS_9allocatorIS3_EEE5emptyB8ue170006Ev, symObjAddr: 0xFF0, symBinAddr: 0x100002E9C, symSize: 0x28 }
  - { offsetInCU: 0xB720, offset: 0xB720, size: 0x8, addend: 0x0, symName: __ZNSt3__116__deque_iteratorINS_4pairIiiEEPS2_RS2_PS3_lLl512EEC1B8ue170006ES5_S3_, symObjAddr: 0x1018, symBinAddr: 0x100002EC4, symSize: 0x3C }
  - { offsetInCU: 0xB768, offset: 0xB768, size: 0x8, addend: 0x0, symName: __ZNSt3__116__deque_iteratorINS_4pairIiiEEPS2_RS2_PS3_lLl512EEC2B8ue170006ES5_S3_, symObjAddr: 0x1054, symBinAddr: 0x100002F00, symSize: 0x2C }
  - { offsetInCU: 0xB7B0, offset: 0xB7B0, size: 0x8, addend: 0x0, symName: __ZNKSt3__15dequeINS_4pairIiiEENS_9allocatorIS2_EEE4sizeB8ue170006Ev, symObjAddr: 0x1080, symBinAddr: 0x100002F2C, symSize: 0x28 }
  - { offsetInCU: 0xB7D6, offset: 0xB7D6, size: 0x8, addend: 0x0, symName: __ZNKSt3__15dequeINS_4pairIiiEENS_9allocatorIS2_EEE6__sizeB8ue170006Ev, symObjAddr: 0x10A8, symBinAddr: 0x100002F54, symSize: 0x28 }
  - { offsetInCU: 0xB7FC, offset: 0xB7FC, size: 0x8, addend: 0x0, symName: __ZNKSt3__117__compressed_pairImNS_9allocatorINS_4pairIiiEEEEE5firstB8ue170006Ev, symObjAddr: 0x10D0, symBinAddr: 0x100002F7C, symSize: 0x24 }
  - { offsetInCU: 0xB822, offset: 0xB822, size: 0x8, addend: 0x0, symName: __ZNKSt3__122__compressed_pair_elemImLi0ELb0EE5__getB8ue170006Ev, symObjAddr: 0x10F4, symBinAddr: 0x100002FA0, symSize: 0x14 }
  - { offsetInCU: 0xB848, offset: 0xB848, size: 0x8, addend: 0x0, symName: __ZNSt3__19allocatorINS_4pairIiiEEE7destroyB8ue170006EPS2_, symObjAddr: 0x1138, symBinAddr: 0x100002FE4, symSize: 0x14 }
  - { offsetInCU: 0xB87C, offset: 0xB87C, size: 0x8, addend: 0x0, symName: __ZNSt3__117__compressed_pairImNS_9allocatorINS_4pairIiiEEEEE5firstB8ue170006Ev, symObjAddr: 0x114C, symBinAddr: 0x100002FF8, symSize: 0x24 }
  - { offsetInCU: 0xB8A2, offset: 0xB8A2, size: 0x8, addend: 0x0, symName: __ZNSt3__122__compressed_pair_elemImLi0ELb0EE5__getB8ue170006Ev, symObjAddr: 0x1170, symBinAddr: 0x10000301C, symSize: 0x14 }
  - { offsetInCU: 0xB8C8, offset: 0xB8C8, size: 0x8, addend: 0x0, symName: __ZNSt3__114__split_bufferIPNS_4pairIiiEENS_9allocatorIS3_EEE19__destruct_at_beginB8ue170006EPS3_, symObjAddr: 0x1184, symBinAddr: 0x100003030, symSize: 0x2C }
  - { offsetInCU: 0xB8FC, offset: 0xB8FC, size: 0x8, addend: 0x0, symName: __ZNSt3__114__split_bufferIPNS_4pairIiiEENS_9allocatorIS3_EEE19__destruct_at_beginEPS3_NS_17integral_constantIbLb1EEE, symObjAddr: 0x11B0, symBinAddr: 0x10000305C, symSize: 0x20 }
  - { offsetInCU: 0xB93C, offset: 0xB93C, size: 0x8, addend: 0x0, symName: __ZNKSt3__15dequeINS_4pairIiiEENS_9allocatorIS2_EEE18__annotate_from_toB8ue170006EmmNS5_22__asan_annotation_typeENS5_23__asan_annotation_placeE, symObjAddr: 0x11D0, symBinAddr: 0x10000307C, symSize: 0x580 }
  - { offsetInCU: 0xBAFA, offset: 0xBAFA, size: 0x8, addend: 0x0, symName: __ZNKSt3__114__split_bufferIPNS_4pairIiiEENS_9allocatorIS3_EEE5beginB8ue170006Ev, symObjAddr: 0x1750, symBinAddr: 0x1000035FC, symSize: 0x18 }
  - { offsetInCU: 0xBB20, offset: 0xBB20, size: 0x8, addend: 0x0, symName: __ZNKSt3__15dequeINS_4pairIiiEENS_9allocatorIS2_EEE5emptyB8ue170006Ev, symObjAddr: 0x1768, symBinAddr: 0x100003614, symSize: 0x30 }
  - { offsetInCU: 0xBB46, offset: 0xBB46, size: 0x8, addend: 0x0, symName: __ZNKSt3__15dequeINS_4pairIiiEENS_9allocatorIS2_EEE44__annotate_double_ended_contiguous_containerB8ue170006EPKvS7_S7_S7_S7_S7_, symObjAddr: 0x17AC, symBinAddr: 0x100003658, symSize: 0x28 }
  - { offsetInCU: 0xBBB4, offset: 0xBBB4, size: 0x8, addend: 0x0, symName: __ZNKSt3__15dequeINS_4pairIiiEENS_9allocatorIS2_EEE22__annotate_whole_blockB8ue170006EmNS5_22__asan_annotation_typeE, symObjAddr: 0x17D4, symBinAddr: 0x100003680, symSize: 0xAC }
  - { offsetInCU: 0xBC25, offset: 0xBC25, size: 0x8, addend: 0x0, symName: __ZNKSt3__15dequeINS_4pairIiiEENS_9allocatorIS2_EEE23__annotate_poison_blockB8ue170006EPKvS7_, symObjAddr: 0x1880, symBinAddr: 0x10000372C, symSize: 0x44 }
  - { offsetInCU: 0xBC69, offset: 0xBC69, size: 0x8, addend: 0x0, symName: __ZNSt3__19allocatorINS_4pairIiiEEE10deallocateB8ue170006EPS2_m, symObjAddr: 0x18C4, symBinAddr: 0x100003770, symSize: 0x70 }
  - { offsetInCU: 0xBCAB, offset: 0xBCAB, size: 0x8, addend: 0x0, symName: __ZNSt3__117__compressed_pairImNS_9allocatorINS_4pairIiiEEEEE6secondB8ue170006Ev, symObjAddr: 0x19BC, symBinAddr: 0x100003868, symSize: 0x24 }
  - { offsetInCU: 0xBCD1, offset: 0xBCD1, size: 0x8, addend: 0x0, symName: __ZNSt3__122__compressed_pair_elemINS_9allocatorINS_4pairIiiEEEELi1ELb1EE5__getB8ue170006Ev, symObjAddr: 0x19E0, symBinAddr: 0x10000388C, symSize: 0x14 }
  - { offsetInCU: 0xBCF7, offset: 0xBCF7, size: 0x8, addend: 0x0, symName: __ZNSt3__114__split_bufferIPNS_4pairIiiEENS_9allocatorIS3_EEED2Ev, symObjAddr: 0x19F4, symBinAddr: 0x1000038A0, symSize: 0x80 }
  - { offsetInCU: 0xBD23, offset: 0xBD23, size: 0x8, addend: 0x0, symName: __ZNSt3__114__split_bufferIPNS_4pairIiiEENS_9allocatorIS3_EEE5clearB8ue170006Ev, symObjAddr: 0x1A74, symBinAddr: 0x100003920, symSize: 0x28 }
  - { offsetInCU: 0xBD49, offset: 0xBD49, size: 0x8, addend: 0x0, symName: __ZNSt3__116allocator_traitsINS_9allocatorIPNS_4pairIiiEEEEE10deallocateB8ue170006ERS5_PS4_m, symObjAddr: 0x1A9C, symBinAddr: 0x100003948, symSize: 0x34 }
  - { offsetInCU: 0xBD8B, offset: 0xBD8B, size: 0x8, addend: 0x0, symName: __ZNSt3__114__split_bufferIPNS_4pairIiiEENS_9allocatorIS3_EEE7__allocB8ue170006Ev, symObjAddr: 0x1AD0, symBinAddr: 0x10000397C, symSize: 0x28 }
  - { offsetInCU: 0xBDB1, offset: 0xBDB1, size: 0x8, addend: 0x0, symName: __ZNKSt3__114__split_bufferIPNS_4pairIiiEENS_9allocatorIS3_EEE8capacityB8ue170006Ev, symObjAddr: 0x1AF8, symBinAddr: 0x1000039A4, symSize: 0x40 }
  - { offsetInCU: 0xBDD7, offset: 0xBDD7, size: 0x8, addend: 0x0, symName: __ZNSt3__114__split_bufferIPNS_4pairIiiEENS_9allocatorIS3_EEE17__destruct_at_endB8ue170006EPS3_, symObjAddr: 0x1B38, symBinAddr: 0x1000039E4, symSize: 0x2C }
  - { offsetInCU: 0xBE0B, offset: 0xBE0B, size: 0x8, addend: 0x0, symName: __ZNSt3__114__split_bufferIPNS_4pairIiiEENS_9allocatorIS3_EEE17__destruct_at_endB8ue170006EPS3_NS_17integral_constantIbLb0EEE, symObjAddr: 0x1B64, symBinAddr: 0x100003A10, symSize: 0x94 }
  - { offsetInCU: 0xBE4B, offset: 0xBE4B, size: 0x8, addend: 0x0, symName: __ZNSt3__116allocator_traitsINS_9allocatorIPNS_4pairIiiEEEEE7destroyB8ue170006IS4_vEEvRS5_PT_, symObjAddr: 0x1BF8, symBinAddr: 0x100003AA4, symSize: 0x2C }
  - { offsetInCU: 0xBE88, offset: 0xBE88, size: 0x8, addend: 0x0, symName: __ZNSt3__19allocatorIPNS_4pairIiiEEE7destroyB8ue170006EPS3_, symObjAddr: 0x1C38, symBinAddr: 0x100003AE4, symSize: 0x14 }
  - { offsetInCU: 0xBEBC, offset: 0xBEBC, size: 0x8, addend: 0x0, symName: __ZNSt3__19allocatorIPNS_4pairIiiEEE10deallocateB8ue170006EPS3_m, symObjAddr: 0x1C4C, symBinAddr: 0x100003AF8, symSize: 0x70 }
  - { offsetInCU: 0xBEFE, offset: 0xBEFE, size: 0x8, addend: 0x0, symName: __ZNSt3__117__compressed_pairIPPNS_4pairIiiEENS_9allocatorIS3_EEE6secondB8ue170006Ev, symObjAddr: 0x1CBC, symBinAddr: 0x100003B68, symSize: 0x24 }
  - { offsetInCU: 0xBF24, offset: 0xBF24, size: 0x8, addend: 0x0, symName: __ZNSt3__122__compressed_pair_elemINS_9allocatorIPNS_4pairIiiEEEELi1ELb1EE5__getB8ue170006Ev, symObjAddr: 0x1CE0, symBinAddr: 0x100003B8C, symSize: 0x14 }
  - { offsetInCU: 0xBF4A, offset: 0xBF4A, size: 0x8, addend: 0x0, symName: __ZNKSt3__114__split_bufferIPNS_4pairIiiEENS_9allocatorIS3_EEE9__end_capB8ue170006Ev, symObjAddr: 0x1CF4, symBinAddr: 0x100003BA0, symSize: 0x28 }
  - { offsetInCU: 0xBF70, offset: 0xBF70, size: 0x8, addend: 0x0, symName: __ZNKSt3__117__compressed_pairIPPNS_4pairIiiEENS_9allocatorIS3_EEE5firstB8ue170006Ev, symObjAddr: 0x1D1C, symBinAddr: 0x100003BC8, symSize: 0x24 }
  - { offsetInCU: 0xBF96, offset: 0xBF96, size: 0x8, addend: 0x0, symName: __ZNKSt3__122__compressed_pair_elemIPPNS_4pairIiiEELi0ELb0EE5__getB8ue170006Ev, symObjAddr: 0x1D40, symBinAddr: 0x100003BEC, symSize: 0x14 }
  - { offsetInCU: 0xBFBC, offset: 0xBFBC, size: 0x8, addend: 0x0, symName: __ZNSt3__15queueINS_4pairIiiEENS_5dequeIS2_NS_9allocatorIS2_EEEEEC2B8ue170006Ev, symObjAddr: 0x1D54, symBinAddr: 0x100003C00, symSize: 0x2C }
  - { offsetInCU: 0xBFE6, offset: 0xBFE6, size: 0x8, addend: 0x0, symName: __ZNSt3__15dequeINS_4pairIiiEENS_9allocatorIS2_EEEC1B8ue170006Ev, symObjAddr: 0x1D80, symBinAddr: 0x100003C2C, symSize: 0x2C }
  - { offsetInCU: 0xC010, offset: 0xC010, size: 0x8, addend: 0x0, symName: __ZNSt3__15dequeINS_4pairIiiEENS_9allocatorIS2_EEEC2B8ue170006Ev, symObjAddr: 0x1DAC, symBinAddr: 0x100003C58, symSize: 0x84 }
  - { offsetInCU: 0xC03A, offset: 0xC03A, size: 0x8, addend: 0x0, symName: __ZNSt3__114__split_bufferIPNS_4pairIiiEENS_9allocatorIS3_EEEC1B8ue170006Ev, symObjAddr: 0x1E30, symBinAddr: 0x100003CDC, symSize: 0x2C }
  - { offsetInCU: 0xC06E, offset: 0xC06E, size: 0x8, addend: 0x0, symName: __ZNSt3__117__compressed_pairImNS_9allocatorINS_4pairIiiEEEEEC1B8ue170006IiNS_18__default_init_tagEEEOT_OT0_, symObjAddr: 0x1E5C, symBinAddr: 0x100003D08, symSize: 0x3C }
  - { offsetInCU: 0xC0C6, offset: 0xC0C6, size: 0x8, addend: 0x0, symName: __ZNSt3__114__split_bufferIPNS_4pairIiiEENS_9allocatorIS3_EEEC2B8ue170006Ev, symObjAddr: 0x1E98, symBinAddr: 0x100003D44, symSize: 0x48 }
  - { offsetInCU: 0xC0F5, offset: 0xC0F5, size: 0x8, addend: 0x0, symName: __ZNSt3__117__compressed_pairIPPNS_4pairIiiEENS_9allocatorIS3_EEEC1B8ue170006IDnNS_18__default_init_tagEEEOT_OT0_, symObjAddr: 0x1EE0, symBinAddr: 0x100003D8C, symSize: 0x3C }
  - { offsetInCU: 0xC14D, offset: 0xC14D, size: 0x8, addend: 0x0, symName: __ZNSt3__117__compressed_pairIPPNS_4pairIiiEENS_9allocatorIS3_EEEC2B8ue170006IDnNS_18__default_init_tagEEEOT_OT0_, symObjAddr: 0x1F1C, symBinAddr: 0x100003DC8, symSize: 0x40 }
  - { offsetInCU: 0xC1A5, offset: 0xC1A5, size: 0x8, addend: 0x0, symName: __ZNSt3__122__compressed_pair_elemIPPNS_4pairIiiEELi0ELb0EEC2B8ue170006IDnvEEOT_, symObjAddr: 0x1F5C, symBinAddr: 0x100003E08, symSize: 0x1C }
  - { offsetInCU: 0xC1E7, offset: 0xC1E7, size: 0x8, addend: 0x0, symName: __ZNSt3__122__compressed_pair_elemINS_9allocatorIPNS_4pairIiiEEEELi1ELb1EEC2B8ue170006ENS_18__default_init_tagE, symObjAddr: 0x1F78, symBinAddr: 0x100003E24, symSize: 0x2C }
  - { offsetInCU: 0xC21B, offset: 0xC21B, size: 0x8, addend: 0x0, symName: __ZNSt3__19allocatorIPNS_4pairIiiEEEC2B8ue170006Ev, symObjAddr: 0x1FA4, symBinAddr: 0x100003E50, symSize: 0x2C }
  - { offsetInCU: 0xC245, offset: 0xC245, size: 0x8, addend: 0x0, symName: __ZNSt3__116__non_trivial_ifILb1ENS_9allocatorIPNS_4pairIiiEEEEEC2B8ue170006Ev, symObjAddr: 0x1FD0, symBinAddr: 0x100003E7C, symSize: 0x14 }
  - { offsetInCU: 0xC26F, offset: 0xC26F, size: 0x8, addend: 0x0, symName: __ZNSt3__117__compressed_pairImNS_9allocatorINS_4pairIiiEEEEEC2B8ue170006IiNS_18__default_init_tagEEEOT_OT0_, symObjAddr: 0x1FE4, symBinAddr: 0x100003E90, symSize: 0x40 }
  - { offsetInCU: 0xC2C7, offset: 0xC2C7, size: 0x8, addend: 0x0, symName: __ZNSt3__122__compressed_pair_elemImLi0ELb0EEC2B8ue170006IivEEOT_, symObjAddr: 0x2024, symBinAddr: 0x100003ED0, symSize: 0x24 }
  - { offsetInCU: 0xC309, offset: 0xC309, size: 0x8, addend: 0x0, symName: __ZNSt3__122__compressed_pair_elemINS_9allocatorINS_4pairIiiEEEELi1ELb1EEC2B8ue170006ENS_18__default_init_tagE, symObjAddr: 0x2048, symBinAddr: 0x100003EF4, symSize: 0x2C }
  - { offsetInCU: 0xC33D, offset: 0xC33D, size: 0x8, addend: 0x0, symName: __ZNSt3__19allocatorINS_4pairIiiEEEC2B8ue170006Ev, symObjAddr: 0x2074, symBinAddr: 0x100003F20, symSize: 0x2C }
  - { offsetInCU: 0xC367, offset: 0xC367, size: 0x8, addend: 0x0, symName: __ZNSt3__116__non_trivial_ifILb1ENS_9allocatorINS_4pairIiiEEEEEC2B8ue170006Ev, symObjAddr: 0x20A0, symBinAddr: 0x100003F4C, symSize: 0x14 }
  - { offsetInCU: 0xC391, offset: 0xC391, size: 0x8, addend: 0x0, symName: __ZNSt3__15dequeINS_4pairIiiEENS_9allocatorIS2_EEE9push_backERKS2_, symObjAddr: 0x20B4, symBinAddr: 0x100003F60, symSize: 0xAC }
  - { offsetInCU: 0xC3D7, offset: 0xC3D7, size: 0x8, addend: 0x0, symName: __ZNKSt3__15dequeINS_4pairIiiEENS_9allocatorIS2_EEE12__back_spareB8ue170006Ev, symObjAddr: 0x2160, symBinAddr: 0x10000400C, symSize: 0x54 }
  - { offsetInCU: 0xC3FD, offset: 0xC3FD, size: 0x8, addend: 0x0, symName: __ZNSt3__15dequeINS_4pairIiiEENS_9allocatorIS2_EEE19__add_back_capacityEv, symObjAddr: 0x21B4, symBinAddr: 0x100004060, symSize: 0x364 }
  - { offsetInCU: 0xC4B5, offset: 0xC4B5, size: 0x8, addend: 0x0, symName: __ZNKSt3__15dequeINS_4pairIiiEENS_9allocatorIS2_EEE24__annotate_increase_backB8ue170006Em, symObjAddr: 0x2518, symBinAddr: 0x1000043C4, symSize: 0x7C }
  - { offsetInCU: 0xC4EA, offset: 0xC4EA, size: 0x8, addend: 0x0, symName: __ZNSt3__116allocator_traitsINS_9allocatorINS_4pairIiiEEEEE9constructB8ue170006IS3_JRKS3_EvEEvRS4_PT_DpOT0_, symObjAddr: 0x2594, symBinAddr: 0x100004440, symSize: 0x34 }
  - { offsetInCU: 0xC541, offset: 0xC541, size: 0x8, addend: 0x0, symName: __ZNKSt3__15dequeINS_4pairIiiEENS_9allocatorIS2_EEE10__capacityB8ue170006Ev, symObjAddr: 0x25C8, symBinAddr: 0x100004474, symSize: 0x60 }
  - { offsetInCU: 0xC567, offset: 0xC567, size: 0x8, addend: 0x0, symName: __ZNKSt3__15dequeINS_4pairIiiEENS_9allocatorIS2_EEE13__front_spareB8ue170006Ev, symObjAddr: 0x2628, symBinAddr: 0x1000044D4, symSize: 0x18 }
  - { offsetInCU: 0xC58D, offset: 0xC58D, size: 0x8, addend: 0x0, symName: __ZNSt3__114__split_bufferIPNS_4pairIiiEENS_9allocatorIS3_EEE9push_backB8ue170006ERKS3_, symObjAddr: 0x2640, symBinAddr: 0x1000044EC, symSize: 0x270 }
  - { offsetInCU: 0xC606, offset: 0xC606, size: 0x8, addend: 0x0, symName: __ZNKSt3__114__split_bufferIPNS_4pairIiiEENS_9allocatorIS3_EEE12__back_spareB8ue170006Ev, symObjAddr: 0x28B0, symBinAddr: 0x10000475C, symSize: 0x40 }
  - { offsetInCU: 0xC62C, offset: 0xC62C, size: 0x8, addend: 0x0, symName: __ZNSt3__114__split_bufferIPNS_4pairIiiEENS_9allocatorIS3_EEE9push_backEOS3_, symObjAddr: 0x28F0, symBinAddr: 0x10000479C, symSize: 0x270 }
  - { offsetInCU: 0xC6A5, offset: 0xC6A5, size: 0x8, addend: 0x0, symName: __ZNSt3__116allocator_traitsINS_9allocatorINS_4pairIiiEEEEE8allocateB8ue170006ERS4_m, symObjAddr: 0x2B60, symBinAddr: 0x100004A0C, symSize: 0x2C }
  - { offsetInCU: 0xC6D8, offset: 0xC6D8, size: 0x8, addend: 0x0, symName: __ZNSt3__114__split_bufferIPNS_4pairIiiEENS_9allocatorIS3_EEE10push_frontEOS3_, symObjAddr: 0x2B8C, symBinAddr: 0x100004A38, symSize: 0x26C }
  - { offsetInCU: 0xC751, offset: 0xC751, size: 0x8, addend: 0x0, symName: __ZNSt3__114__split_bufferIPNS_4pairIiiEERNS_9allocatorIS3_EEEC1EmmS6_, symObjAddr: 0x2E24, symBinAddr: 0x100004CD0, symSize: 0x44 }
  - { offsetInCU: 0xC7AC, offset: 0xC7AC, size: 0x8, addend: 0x0, symName: __ZNSt3__122__allocator_destructorINS_9allocatorINS_4pairIiiEEEEEC1B8ue170006ERS4_m, symObjAddr: 0x2E68, symBinAddr: 0x100004D14, symSize: 0x3C }
  - { offsetInCU: 0xC874, offset: 0xC874, size: 0x8, addend: 0x0, symName: __ZNSt3__110unique_ptrIPNS_4pairIiiEENS_22__allocator_destructorINS_9allocatorIS2_EEEEEC1B8ue170006ILb1EvEES3_NS_16__dependent_typeINS_27__unique_ptr_deleter_sfinaeIS7_EEXT_EE20__good_rval_ref_typeE, symObjAddr: 0x2EA4, symBinAddr: 0x100004D50, symSize: 0x3C }
  - { offsetInCU: 0xC8C5, offset: 0xC8C5, size: 0x8, addend: 0x0, symName: __ZNSt3__114__split_bufferIPNS_4pairIiiEERNS_9allocatorIS3_EEE9push_backEOS3_, symObjAddr: 0x2EE0, symBinAddr: 0x100004D8C, symSize: 0x270 }
  - { offsetInCU: 0xC93E, offset: 0xC93E, size: 0x8, addend: 0x0, symName: __ZNKSt3__110unique_ptrIPNS_4pairIiiEENS_22__allocator_destructorINS_9allocatorIS2_EEEEE3getB8ue170006Ev, symObjAddr: 0x3150, symBinAddr: 0x100004FFC, symSize: 0x28 }
  - { offsetInCU: 0xC964, offset: 0xC964, size: 0x8, addend: 0x0, symName: __ZNSt3__110unique_ptrIPNS_4pairIiiEENS_22__allocator_destructorINS_9allocatorIS2_EEEEE7releaseB8ue170006Ev, symObjAddr: 0x3178, symBinAddr: 0x100005024, symSize: 0x44 }
  - { offsetInCU: 0xC999, offset: 0xC999, size: 0x8, addend: 0x0, symName: __ZNSt3__114__split_bufferIPNS_4pairIiiEERNS_9allocatorIS3_EEE10push_frontERKS3_, symObjAddr: 0x31BC, symBinAddr: 0x100005068, symSize: 0x26C }
  - { offsetInCU: 0xCA12, offset: 0xCA12, size: 0x8, addend: 0x0, symName: __ZNSt3__114__split_bufferIPNS_4pairIiiEENS_9allocatorIS3_EEE9__end_capB8ue170006Ev, symObjAddr: 0x3464, symBinAddr: 0x100005310, symSize: 0x28 }
  - { offsetInCU: 0xCA38, offset: 0xCA38, size: 0x8, addend: 0x0, symName: __ZNSt3__114__split_bufferIPNS_4pairIiiEERNS_9allocatorIS3_EEE9__end_capB8ue170006Ev, symObjAddr: 0x348C, symBinAddr: 0x100005338, symSize: 0x28 }
  - { offsetInCU: 0xCA5E, offset: 0xCA5E, size: 0x8, addend: 0x0, symName: __ZNSt3__110unique_ptrIPNS_4pairIiiEENS_22__allocator_destructorINS_9allocatorIS2_EEEEED1B8ue170006Ev, symObjAddr: 0x34B4, symBinAddr: 0x100005360, symSize: 0x2C }
  - { offsetInCU: 0xCA88, offset: 0xCA88, size: 0x8, addend: 0x0, symName: __ZNSt3__114__split_bufferIPNS_4pairIiiEERNS_9allocatorIS3_EEED1Ev, symObjAddr: 0x34E0, symBinAddr: 0x10000538C, symSize: 0x2C }
  - { offsetInCU: 0xCAB4, offset: 0xCAB4, size: 0x8, addend: 0x0, symName: __ZNSt3__114__split_bufferIPNS_4pairIiiEERNS_9allocatorIS3_EEE18__construct_at_endINS_13move_iteratorIPS3_EEEENS_9enable_ifIXsr31__has_forward_iterator_categoryIT_EE5valueEvE4typeESD_SD_, symObjAddr: 0x354C, symBinAddr: 0x1000053F8, symSize: 0x60 }
  - { offsetInCU: 0xCB01, offset: 0xCB01, size: 0x8, addend: 0x0, symName: __ZNSt3__113move_iteratorIPPNS_4pairIiiEEEC1B8ue170006ES4_, symObjAddr: 0x35AC, symBinAddr: 0x100005458, symSize: 0x34 }
  - { offsetInCU: 0xCB39, offset: 0xCB39, size: 0x8, addend: 0x0, symName: __ZNSt3__116allocator_traitsINS_9allocatorIPNS_4pairIiiEEEEE9constructB8ue170006IS4_JRKS4_EvEEvRS5_PT_DpOT0_, symObjAddr: 0x35E0, symBinAddr: 0x10000548C, symSize: 0x34 }
  - { offsetInCU: 0xCBB3, offset: 0xCBB3, size: 0x8, addend: 0x0, symName: __ZNKSt3__114__move_trivialclB8ue170006IPNS_4pairIiiEES4_Li0EEENS2_IPT_PT0_EES6_S6_S8_, symObjAddr: 0x37B0, symBinAddr: 0x10000565C, symSize: 0x48 }
  - { offsetInCU: 0xCC1B, offset: 0xCC1B, size: 0x8, addend: 0x0, symName: __ZNSt3__14pairIPPNS0_IiiEES3_EC1B8ue170006ERKS3_S6_, symObjAddr: 0x3A28, symBinAddr: 0x1000058D4, symSize: 0x3C }
  - { offsetInCU: 0xCC61, offset: 0xCC61, size: 0x8, addend: 0x0, symName: __ZNSt3__14pairIPPNS0_IiiEES3_EC2B8ue170006ERKS3_S6_, symObjAddr: 0x3A64, symBinAddr: 0x100005910, symSize: 0x34 }
  - { offsetInCU: 0xCCA7, offset: 0xCCA7, size: 0x8, addend: 0x0, symName: __ZNSt3__118__unwrap_iter_implIPPNS_4pairIiiEELb1EE8__unwrapB8ue170006ES4_, symObjAddr: 0x3A98, symBinAddr: 0x100005944, symSize: 0x24 }
  - { offsetInCU: 0xCCCA, offset: 0xCCCA, size: 0x8, addend: 0x0, symName: __ZNSt3__118__unwrap_iter_implIPPNS_4pairIiiEELb1EE8__rewrapB8ue170006ES4_S4_, symObjAddr: 0x3ABC, symBinAddr: 0x100005968, symSize: 0x50 }
  - { offsetInCU: 0xCCFB, offset: 0xCCFB, size: 0x8, addend: 0x0, symName: __ZNSt3__114__split_bufferIPNS_4pairIiiEERNS_9allocatorIS3_EEE28__construct_at_end_with_sizeINS_13move_iteratorIPS3_EEEEvT_m, symObjAddr: 0x3B0C, symBinAddr: 0x1000059B8, symSize: 0xE4 }
  - { offsetInCU: 0xCD61, offset: 0xCD61, size: 0x8, addend: 0x0, symName: __ZNSt3__114__split_bufferIPNS_4pairIiiEERNS_9allocatorIS3_EEE21_ConstructTransactionC1B8ue170006EPPS3_m, symObjAddr: 0x3C2C, symBinAddr: 0x100005AD8, symSize: 0x3C }
  - { offsetInCU: 0xCDA7, offset: 0xCDA7, size: 0x8, addend: 0x0, symName: __ZNSt3__116allocator_traitsINS_9allocatorIPNS_4pairIiiEEEEE9constructB8ue170006IS4_JS4_EvEEvRS5_PT_DpOT0_, symObjAddr: 0x3C68, symBinAddr: 0x100005B14, symSize: 0x34 }
  - { offsetInCU: 0xCDFE, offset: 0xCDFE, size: 0x8, addend: 0x0, symName: __ZNSt3__114__split_bufferIPNS_4pairIiiEERNS_9allocatorIS3_EEE7__allocB8ue170006Ev, symObjAddr: 0x3C9C, symBinAddr: 0x100005B48, symSize: 0x28 }
  - { offsetInCU: 0xCE24, offset: 0xCE24, size: 0x8, addend: 0x0, symName: __ZNKSt3__113move_iteratorIPPNS_4pairIiiEEEdeB8ue170006Ev, symObjAddr: 0x3CC4, symBinAddr: 0x100005B70, symSize: 0x18 }
  - { offsetInCU: 0xCE4A, offset: 0xCE4A, size: 0x8, addend: 0x0, symName: __ZNSt3__113move_iteratorIPPNS_4pairIiiEEEppB8ue170006Ev, symObjAddr: 0x3CDC, symBinAddr: 0x100005B88, symSize: 0x20 }
  - { offsetInCU: 0xCE70, offset: 0xCE70, size: 0x8, addend: 0x0, symName: __ZNSt3__114__split_bufferIPNS_4pairIiiEERNS_9allocatorIS3_EEE21_ConstructTransactionD1B8ue170006Ev, symObjAddr: 0x3CFC, symBinAddr: 0x100005BA8, symSize: 0x2C }
  - { offsetInCU: 0xCE9A, offset: 0xCE9A, size: 0x8, addend: 0x0, symName: __ZNSt3__114__split_bufferIPNS_4pairIiiEERNS_9allocatorIS3_EEE21_ConstructTransactionC2B8ue170006EPPS3_m, symObjAddr: 0x3D28, symBinAddr: 0x100005BD4, symSize: 0x44 }
  - { offsetInCU: 0xCEE0, offset: 0xCEE0, size: 0x8, addend: 0x0, symName: __ZNSt3__19allocatorIPNS_4pairIiiEEE9constructB8ue170006IS3_JS3_EEEvPT_DpOT0_, symObjAddr: 0x3D6C, symBinAddr: 0x100005C18, symSize: 0x28 }
  - { offsetInCU: 0xCF36, offset: 0xCF36, size: 0x8, addend: 0x0, symName: __ZNSt3__117__compressed_pairIPPNS_4pairIiiEERNS_9allocatorIS3_EEE6secondB8ue170006Ev, symObjAddr: 0x3D94, symBinAddr: 0x100005C40, symSize: 0x28 }
  - { offsetInCU: 0xCF5C, offset: 0xCF5C, size: 0x8, addend: 0x0, symName: __ZNSt3__122__compressed_pair_elemIRNS_9allocatorIPNS_4pairIiiEEEELi1ELb0EE5__getB8ue170006Ev, symObjAddr: 0x3DBC, symBinAddr: 0x100005C68, symSize: 0x18 }
  - { offsetInCU: 0xCF82, offset: 0xCF82, size: 0x8, addend: 0x0, symName: __ZNSt3__114__split_bufferIPNS_4pairIiiEERNS_9allocatorIS3_EEE21_ConstructTransactionD2B8ue170006Ev, symObjAddr: 0x3DD4, symBinAddr: 0x100005C80, symSize: 0x20 }
  - { offsetInCU: 0xCFAC, offset: 0xCFAC, size: 0x8, addend: 0x0, symName: __ZNKSt3__113move_iteratorIPPNS_4pairIiiEEE4baseB8ue170006Ev, symObjAddr: 0x3E6C, symBinAddr: 0x100005D18, symSize: 0x18 }
  - { offsetInCU: 0xCFD2, offset: 0xCFD2, size: 0x8, addend: 0x0, symName: __ZNSt3__113move_iteratorIPPNS_4pairIiiEEEC2B8ue170006ES4_, symObjAddr: 0x3E84, symBinAddr: 0x100005D30, symSize: 0x20 }
  - { offsetInCU: 0xD00A, offset: 0xD00A, size: 0x8, addend: 0x0, symName: __ZNSt3__19allocatorIPNS_4pairIiiEEE9constructB8ue170006IS3_JRKS3_EEEvPT_DpOT0_, symObjAddr: 0x3EA4, symBinAddr: 0x100005D50, symSize: 0x28 }
  - { offsetInCU: 0xD060, offset: 0xD060, size: 0x8, addend: 0x0, symName: __ZNSt3__19allocatorINS_4pairIiiEEE8allocateB8ue170006Em, symObjAddr: 0x3ECC, symBinAddr: 0x100005D78, symSize: 0x84 }
  - { offsetInCU: 0xD09E, offset: 0xD09E, size: 0x8, addend: 0x0, symName: __ZNSt3__116allocator_traitsINS_9allocatorINS_4pairIiiEEEEE8max_sizeB8ue170006IS4_vEEmRKS4_, symObjAddr: 0x3F50, symBinAddr: 0x100005DFC, symSize: 0x24 }
  - { offsetInCU: 0xD0CC, offset: 0xD0CC, size: 0x8, addend: 0x0, symName: __ZNKSt3__19allocatorINS_4pairIiiEEE8max_sizeB8ue170006Ev, symObjAddr: 0x3FD0, symBinAddr: 0x100005E7C, symSize: 0x14 }
  - { offsetInCU: 0xD0FC, offset: 0xD0FC, size: 0x8, addend: 0x0, symName: __ZNKSt3__123__move_backward_trivialclB8ue170006IPNS_4pairIiiEES4_Li0EEENS2_IPT_PT0_EES6_S6_S8_, symObjAddr: 0x4184, symBinAddr: 0x100006030, symSize: 0x48 }
  - { offsetInCU: 0xD16E, offset: 0xD16E, size: 0x8, addend: 0x0, symName: __ZNKSt3__16__lessIvvEclB8ue170006ImmEEbRKT_RKT0_, symObjAddr: 0x42E8, symBinAddr: 0x100006194, symSize: 0x34 }
  - { offsetInCU: 0xD1C2, offset: 0xD1C2, size: 0x8, addend: 0x0, symName: __ZNSt3__114__split_bufferIPNS_4pairIiiEERNS_9allocatorIS3_EEEC2EmmS6_, symObjAddr: 0x431C, symBinAddr: 0x1000061C8, symSize: 0xD4 }
  - { offsetInCU: 0xD236, offset: 0xD236, size: 0x8, addend: 0x0, symName: __ZNSt3__117__compressed_pairIPPNS_4pairIiiEERNS_9allocatorIS3_EEEC1B8ue170006IDnS7_EEOT_OT0_, symObjAddr: 0x43F0, symBinAddr: 0x10000629C, symSize: 0x3C }
  - { offsetInCU: 0xD28E, offset: 0xD28E, size: 0x8, addend: 0x0, symName: __ZNSt3__117__compressed_pairIPPNS_4pairIiiEERNS_9allocatorIS3_EEEC2B8ue170006IDnS7_EEOT_OT0_, symObjAddr: 0x446C, symBinAddr: 0x100006318, symSize: 0x48 }
  - { offsetInCU: 0xD2E6, offset: 0xD2E6, size: 0x8, addend: 0x0, symName: __ZNSt3__122__compressed_pair_elemIRNS_9allocatorIPNS_4pairIiiEEEELi1ELb0EEC2B8ue170006IS6_vEEOT_, symObjAddr: 0x44B4, symBinAddr: 0x100006360, symSize: 0x20 }
  - { offsetInCU: 0xD328, offset: 0xD328, size: 0x8, addend: 0x0, symName: __ZNSt3__19allocatorIPNS_4pairIiiEEE8allocateB8ue170006Em, symObjAddr: 0x44D4, symBinAddr: 0x100006380, symSize: 0x84 }
  - { offsetInCU: 0xD366, offset: 0xD366, size: 0x8, addend: 0x0, symName: __ZNSt3__116allocator_traitsINS_9allocatorIPNS_4pairIiiEEEEE8max_sizeB8ue170006IS5_vEEmRKS5_, symObjAddr: 0x4558, symBinAddr: 0x100006404, symSize: 0x24 }
  - { offsetInCU: 0xD394, offset: 0xD394, size: 0x8, addend: 0x0, symName: __ZNKSt3__19allocatorIPNS_4pairIiiEEE8max_sizeB8ue170006Ev, symObjAddr: 0x457C, symBinAddr: 0x100006428, symSize: 0x14 }
  - { offsetInCU: 0xD3BA, offset: 0xD3BA, size: 0x8, addend: 0x0, symName: __ZNSt3__122__allocator_destructorINS_9allocatorINS_4pairIiiEEEEEC2B8ue170006ERS4_m, symObjAddr: 0x4590, symBinAddr: 0x10000643C, symSize: 0x2C }
  - { offsetInCU: 0xD400, offset: 0xD400, size: 0x8, addend: 0x0, symName: __ZNSt3__110unique_ptrIPNS_4pairIiiEENS_22__allocator_destructorINS_9allocatorIS2_EEEEEC2B8ue170006ILb1EvEES3_NS_16__dependent_typeINS_27__unique_ptr_deleter_sfinaeIS7_EEXT_EE20__good_rval_ref_typeE, symObjAddr: 0x45BC, symBinAddr: 0x100006468, symSize: 0x5C }
  - { offsetInCU: 0xD451, offset: 0xD451, size: 0x8, addend: 0x0, symName: __ZNSt3__117__compressed_pairIPNS_4pairIiiEENS_22__allocator_destructorINS_9allocatorIS2_EEEEEC1B8ue170006IRS3_S7_EEOT_OT0_, symObjAddr: 0x4618, symBinAddr: 0x1000064C4, symSize: 0x3C }
  - { offsetInCU: 0xD4A9, offset: 0xD4A9, size: 0x8, addend: 0x0, symName: __ZNSt3__117__compressed_pairIPNS_4pairIiiEENS_22__allocator_destructorINS_9allocatorIS2_EEEEEC2B8ue170006IRS3_S7_EEOT_OT0_, symObjAddr: 0x4654, symBinAddr: 0x100006500, symSize: 0x48 }
  - { offsetInCU: 0xD501, offset: 0xD501, size: 0x8, addend: 0x0, symName: __ZNSt3__122__compressed_pair_elemIPNS_4pairIiiEELi0ELb0EEC2B8ue170006IRS3_vEEOT_, symObjAddr: 0x469C, symBinAddr: 0x100006548, symSize: 0x24 }
  - { offsetInCU: 0xD543, offset: 0xD543, size: 0x8, addend: 0x0, symName: __ZNSt3__122__compressed_pair_elemINS_22__allocator_destructorINS_9allocatorINS_4pairIiiEEEEEELi1ELb0EEC2B8ue170006IS6_vEEOT_, symObjAddr: 0x46C0, symBinAddr: 0x10000656C, symSize: 0x24 }
  - { offsetInCU: 0xD585, offset: 0xD585, size: 0x8, addend: 0x0, symName: __ZNKSt3__117__compressed_pairIPNS_4pairIiiEENS_22__allocator_destructorINS_9allocatorIS2_EEEEE5firstB8ue170006Ev, symObjAddr: 0x46E4, symBinAddr: 0x100006590, symSize: 0x24 }
  - { offsetInCU: 0xD5AB, offset: 0xD5AB, size: 0x8, addend: 0x0, symName: __ZNKSt3__122__compressed_pair_elemIPNS_4pairIiiEELi0ELb0EE5__getB8ue170006Ev, symObjAddr: 0x4708, symBinAddr: 0x1000065B4, symSize: 0x14 }
  - { offsetInCU: 0xD5D1, offset: 0xD5D1, size: 0x8, addend: 0x0, symName: __ZNSt3__117__compressed_pairIPNS_4pairIiiEENS_22__allocator_destructorINS_9allocatorIS2_EEEEE5firstB8ue170006Ev, symObjAddr: 0x471C, symBinAddr: 0x1000065C8, symSize: 0x24 }
  - { offsetInCU: 0xD5F7, offset: 0xD5F7, size: 0x8, addend: 0x0, symName: __ZNSt3__122__compressed_pair_elemIPNS_4pairIiiEELi0ELb0EE5__getB8ue170006Ev, symObjAddr: 0x4740, symBinAddr: 0x1000065EC, symSize: 0x14 }
  - { offsetInCU: 0xD61D, offset: 0xD61D, size: 0x8, addend: 0x0, symName: __ZNSt3__117__compressed_pairIPPNS_4pairIiiEENS_9allocatorIS3_EEE5firstB8ue170006Ev, symObjAddr: 0x4754, symBinAddr: 0x100006600, symSize: 0x24 }
  - { offsetInCU: 0xD643, offset: 0xD643, size: 0x8, addend: 0x0, symName: __ZNSt3__122__compressed_pair_elemIPPNS_4pairIiiEELi0ELb0EE5__getB8ue170006Ev, symObjAddr: 0x4778, symBinAddr: 0x100006624, symSize: 0x14 }
  - { offsetInCU: 0xD669, offset: 0xD669, size: 0x8, addend: 0x0, symName: __ZNSt3__117__compressed_pairIPPNS_4pairIiiEERNS_9allocatorIS3_EEE5firstB8ue170006Ev, symObjAddr: 0x478C, symBinAddr: 0x100006638, symSize: 0x24 }
  - { offsetInCU: 0xD68F, offset: 0xD68F, size: 0x8, addend: 0x0, symName: __ZNSt3__110unique_ptrIPNS_4pairIiiEENS_22__allocator_destructorINS_9allocatorIS2_EEEEED2B8ue170006Ev, symObjAddr: 0x47B0, symBinAddr: 0x10000665C, symSize: 0x30 }
  - { offsetInCU: 0xD6B9, offset: 0xD6B9, size: 0x8, addend: 0x0, symName: __ZNSt3__110unique_ptrIPNS_4pairIiiEENS_22__allocator_destructorINS_9allocatorIS2_EEEEE5resetB8ue170006ES3_, symObjAddr: 0x47E0, symBinAddr: 0x10000668C, symSize: 0x78 }
  - { offsetInCU: 0xD6FD, offset: 0xD6FD, size: 0x8, addend: 0x0, symName: __ZNSt3__117__compressed_pairIPNS_4pairIiiEENS_22__allocator_destructorINS_9allocatorIS2_EEEEE6secondB8ue170006Ev, symObjAddr: 0x4858, symBinAddr: 0x100006704, symSize: 0x28 }
  - { offsetInCU: 0xD723, offset: 0xD723, size: 0x8, addend: 0x0, symName: __ZNSt3__122__allocator_destructorINS_9allocatorINS_4pairIiiEEEEEclB8ue170006EPS3_, symObjAddr: 0x4880, symBinAddr: 0x10000672C, symSize: 0x34 }
  - { offsetInCU: 0xD757, offset: 0xD757, size: 0x8, addend: 0x0, symName: __ZNSt3__122__compressed_pair_elemINS_22__allocator_destructorINS_9allocatorINS_4pairIiiEEEEEELi1ELb0EE5__getB8ue170006Ev, symObjAddr: 0x48B4, symBinAddr: 0x100006760, symSize: 0x14 }
  - { offsetInCU: 0xD77D, offset: 0xD77D, size: 0x8, addend: 0x0, symName: __ZNSt3__114__split_bufferIPNS_4pairIiiEERNS_9allocatorIS3_EEED2Ev, symObjAddr: 0x48C8, symBinAddr: 0x100006774, symSize: 0x80 }
  - { offsetInCU: 0xD7A9, offset: 0xD7A9, size: 0x8, addend: 0x0, symName: __ZNSt3__114__split_bufferIPNS_4pairIiiEERNS_9allocatorIS3_EEE5clearB8ue170006Ev, symObjAddr: 0x4948, symBinAddr: 0x1000067F4, symSize: 0x28 }
  - { offsetInCU: 0xD7CF, offset: 0xD7CF, size: 0x8, addend: 0x0, symName: __ZNKSt3__114__split_bufferIPNS_4pairIiiEERNS_9allocatorIS3_EEE8capacityB8ue170006Ev, symObjAddr: 0x4970, symBinAddr: 0x10000681C, symSize: 0x40 }
  - { offsetInCU: 0xD7F5, offset: 0xD7F5, size: 0x8, addend: 0x0, symName: __ZNSt3__114__split_bufferIPNS_4pairIiiEERNS_9allocatorIS3_EEE17__destruct_at_endB8ue170006EPS3_, symObjAddr: 0x49B0, symBinAddr: 0x10000685C, symSize: 0x2C }
  - { offsetInCU: 0xD829, offset: 0xD829, size: 0x8, addend: 0x0, symName: __ZNSt3__114__split_bufferIPNS_4pairIiiEERNS_9allocatorIS3_EEE17__destruct_at_endB8ue170006EPS3_NS_17integral_constantIbLb0EEE, symObjAddr: 0x49DC, symBinAddr: 0x100006888, symSize: 0x94 }
  - { offsetInCU: 0xD869, offset: 0xD869, size: 0x8, addend: 0x0, symName: __ZNKSt3__114__split_bufferIPNS_4pairIiiEERNS_9allocatorIS3_EEE9__end_capB8ue170006Ev, symObjAddr: 0x4A70, symBinAddr: 0x10000691C, symSize: 0x28 }
  - { offsetInCU: 0xD88F, offset: 0xD88F, size: 0x8, addend: 0x0, symName: __ZNKSt3__117__compressed_pairIPPNS_4pairIiiEERNS_9allocatorIS3_EEE5firstB8ue170006Ev, symObjAddr: 0x4A98, symBinAddr: 0x100006944, symSize: 0x24 }
  - { offsetInCU: 0xD8B5, offset: 0xD8B5, size: 0x8, addend: 0x0, symName: __ZNSt3__19allocatorINS_4pairIiiEEE9constructB8ue170006IS2_JRKS2_EEEvPT_DpOT0_, symObjAddr: 0x4ABC, symBinAddr: 0x100006968, symSize: 0x28 }
  - { offsetInCU: 0xD90B, offset: 0xD90B, size: 0x8, addend: 0x0, symName: __ZNSt3__14pairIiiEC1B8ue170006ERKiS3_, symObjAddr: 0x4AE4, symBinAddr: 0x100006990, symSize: 0x3C }
  - { offsetInCU: 0xD951, offset: 0xD951, size: 0x8, addend: 0x0, symName: __ZNSt3__14pairIiiEC2B8ue170006ERKiS3_, symObjAddr: 0x4B20, symBinAddr: 0x1000069CC, symSize: 0x34 }
  - { offsetInCU: 0xD997, offset: 0xD997, size: 0x8, addend: 0x0, symName: __ZNSt3__15dequeINS_4pairIiiEENS_9allocatorIS2_EEE5frontEv, symObjAddr: 0x4B54, symBinAddr: 0x100006A00, symSize: 0x50 }
  - { offsetInCU: 0xD9BF, offset: 0xD9BF, size: 0x8, addend: 0x0, symName: __ZNSt3__15dequeINS_4pairIiiEENS_9allocatorIS2_EEE9pop_frontEv, symObjAddr: 0x4BA4, symBinAddr: 0x100006A50, symSize: 0xD4 }
  - { offsetInCU: 0xDA14, offset: 0xDA14, size: 0x8, addend: 0x0, symName: __ZNKSt3__15dequeINS_4pairIiiEENS_9allocatorIS2_EEE23__annotate_shrink_frontB8ue170006Emm, symObjAddr: 0x4C78, symBinAddr: 0x100006B24, symSize: 0x70 }
  - { offsetInCU: 0xDA58, offset: 0xDA58, size: 0x8, addend: 0x0, symName: __ZNSt3__15dequeINS_4pairIiiEENS_9allocatorIS2_EEE26__maybe_remove_front_spareB8ue170006Eb, symObjAddr: 0x4CE8, symBinAddr: 0x100006B94, symSize: 0xEC }
  - { offsetInCU: 0xDA8D, offset: 0xDA8D, size: 0x8, addend: 0x0, symName: __ZNKSt3__15dequeINS_4pairIiiEENS_9allocatorIS2_EEE20__front_spare_blocksB8ue170006Ev, symObjAddr: 0x4DD4, symBinAddr: 0x100006C80, symSize: 0x2C }
  - { offsetInCU: 0xDAB3, offset: 0xDAB3, size: 0x8, addend: 0x0, symName: __ZNSt3__111char_traitsIcE6lengthB8ue170006EPKc, symObjAddr: 0x4FF4, symBinAddr: 0x100006EA0, symSize: 0x48 }
  - { offsetInCU: 0xDAF4, offset: 0xDAF4, size: 0x8, addend: 0x0, symName: __ZNKSt3__113basic_ostreamIcNS_11char_traitsIcEEE6sentrycvbB8ue170006Ev, symObjAddr: 0x503C, symBinAddr: 0x100006EE8, symSize: 0x1C }
  - { offsetInCU: 0xDB1A, offset: 0xDB1A, size: 0x8, addend: 0x0, symName: __ZNSt3__119ostreambuf_iteratorIcNS_11char_traitsIcEEEC1B8ue170006ERNS_13basic_ostreamIcS2_EE, symObjAddr: 0x52A0, symBinAddr: 0x10000714C, symSize: 0x34 }
  - { offsetInCU: 0xDB52, offset: 0xDB52, size: 0x8, addend: 0x0, symName: __ZNKSt3__18ios_base5flagsB8ue170006Ev, symObjAddr: 0x52D4, symBinAddr: 0x100007180, symSize: 0x18 }
  - { offsetInCU: 0xDB7A, offset: 0xDB7A, size: 0x8, addend: 0x0, symName: __ZNKSt3__19basic_iosIcNS_11char_traitsIcEEE4fillB8ue170006Ev, symObjAddr: 0x52EC, symBinAddr: 0x100007198, symSize: 0x64 }
  - { offsetInCU: 0xDBA2, offset: 0xDBA2, size: 0x8, addend: 0x0, symName: __ZNKSt3__119ostreambuf_iteratorIcNS_11char_traitsIcEEE6failedB8ue170006Ev, symObjAddr: 0x5350, symBinAddr: 0x1000071FC, symSize: 0x24 }
  - { offsetInCU: 0xDBC8, offset: 0xDBC8, size: 0x8, addend: 0x0, symName: __ZNSt3__19basic_iosIcNS_11char_traitsIcEEE8setstateB8ue170006Ej, symObjAddr: 0x5374, symBinAddr: 0x100007220, symSize: 0x2C }
  - { offsetInCU: 0xDBFD, offset: 0xDBFD, size: 0x8, addend: 0x0, symName: __ZNKSt3__18ios_base5widthB8ue170006Ev, symObjAddr: 0x53A0, symBinAddr: 0x10000724C, symSize: 0x18 }
  - { offsetInCU: 0xDC25, offset: 0xDC25, size: 0x8, addend: 0x0, symName: __ZNSt3__115basic_streambufIcNS_11char_traitsIcEEE5sputnB8ue170006EPKcl, symObjAddr: 0x53B8, symBinAddr: 0x100007264, symSize: 0x3C }
  - { offsetInCU: 0xDC67, offset: 0xDC67, size: 0x8, addend: 0x0, symName: __ZNSt3__112basic_stringIcNS_11char_traitsIcEENS_9allocatorIcEEEC1B8ue170006Emc, symObjAddr: 0x53F4, symBinAddr: 0x1000072A0, symSize: 0x3C }
  - { offsetInCU: 0xDCAF, offset: 0xDCAF, size: 0x8, addend: 0x0, symName: __ZNKSt3__112basic_stringIcNS_11char_traitsIcEENS_9allocatorIcEEE4dataB8ue170006Ev, symObjAddr: 0x5430, symBinAddr: 0x1000072DC, symSize: 0x28 }
  - { offsetInCU: 0xDCD5, offset: 0xDCD5, size: 0x8, addend: 0x0, symName: __ZNSt3__18ios_base5widthB8ue170006El, symObjAddr: 0x5458, symBinAddr: 0x100007304, symSize: 0x2C }
  - { offsetInCU: 0xDD1B, offset: 0xDD1B, size: 0x8, addend: 0x0, symName: __ZNSt3__112basic_stringIcNS_11char_traitsIcEENS_9allocatorIcEEEC2B8ue170006Emc, symObjAddr: 0x5484, symBinAddr: 0x100007330, symSize: 0x4C }
  - { offsetInCU: 0xDD63, offset: 0xDD63, size: 0x8, addend: 0x0, symName: __ZNSt3__117__compressed_pairINS_12basic_stringIcNS_11char_traitsIcEENS_9allocatorIcEEE5__repES5_EC1B8ue170006INS_18__default_init_tagESA_EEOT_OT0_, symObjAddr: 0x54D0, symBinAddr: 0x10000737C, symSize: 0x3C }
  - { offsetInCU: 0xDDBB, offset: 0xDDBB, size: 0x8, addend: 0x0, symName: __ZNSt3__117__compressed_pairINS_12basic_stringIcNS_11char_traitsIcEENS_9allocatorIcEEE5__repES5_EC2B8ue170006INS_18__default_init_tagESA_EEOT_OT0_, symObjAddr: 0x550C, symBinAddr: 0x1000073B8, symSize: 0x3C }
  - { offsetInCU: 0xDE13, offset: 0xDE13, size: 0x8, addend: 0x0, symName: __ZNSt3__122__compressed_pair_elemINS_12basic_stringIcNS_11char_traitsIcEENS_9allocatorIcEEE5__repELi0ELb0EEC2B8ue170006ENS_18__default_init_tagE, symObjAddr: 0x5548, symBinAddr: 0x1000073F4, symSize: 0x14 }
  - { offsetInCU: 0xDE47, offset: 0xDE47, size: 0x8, addend: 0x0, symName: __ZNSt3__122__compressed_pair_elemINS_9allocatorIcEELi1ELb1EEC2B8ue170006ENS_18__default_init_tagE, symObjAddr: 0x555C, symBinAddr: 0x100007408, symSize: 0x2C }
  - { offsetInCU: 0xDE7B, offset: 0xDE7B, size: 0x8, addend: 0x0, symName: __ZNSt3__19allocatorIcEC2B8ue170006Ev, symObjAddr: 0x5588, symBinAddr: 0x100007434, symSize: 0x2C }
  - { offsetInCU: 0xDEA5, offset: 0xDEA5, size: 0x8, addend: 0x0, symName: __ZNSt3__116__non_trivial_ifILb1ENS_9allocatorIcEEEC2B8ue170006Ev, symObjAddr: 0x55B4, symBinAddr: 0x100007460, symSize: 0x14 }
  - { offsetInCU: 0xDECF, offset: 0xDECF, size: 0x8, addend: 0x0, symName: __ZNKSt3__112basic_stringIcNS_11char_traitsIcEENS_9allocatorIcEEE13__get_pointerB8ue170006Ev, symObjAddr: 0x55DC, symBinAddr: 0x100007488, symSize: 0x54 }
  - { offsetInCU: 0xDEF5, offset: 0xDEF5, size: 0x8, addend: 0x0, symName: __ZNKSt3__112basic_stringIcNS_11char_traitsIcEENS_9allocatorIcEEE9__is_longB8ue170006Ev, symObjAddr: 0x5630, symBinAddr: 0x1000074DC, symSize: 0x74 }
  - { offsetInCU: 0xDF1B, offset: 0xDF1B, size: 0x8, addend: 0x0, symName: __ZNKSt3__112basic_stringIcNS_11char_traitsIcEENS_9allocatorIcEEE18__get_long_pointerB8ue170006Ev, symObjAddr: 0x56A4, symBinAddr: 0x100007550, symSize: 0x28 }
  - { offsetInCU: 0xDF41, offset: 0xDF41, size: 0x8, addend: 0x0, symName: __ZNKSt3__112basic_stringIcNS_11char_traitsIcEENS_9allocatorIcEEE19__get_short_pointerB8ue170006Ev, symObjAddr: 0x56CC, symBinAddr: 0x100007578, symSize: 0x28 }
  - { offsetInCU: 0xDF67, offset: 0xDF67, size: 0x8, addend: 0x0, symName: __ZNKSt3__117__compressed_pairINS_12basic_stringIcNS_11char_traitsIcEENS_9allocatorIcEEE5__repES5_E5firstB8ue170006Ev, symObjAddr: 0x56F4, symBinAddr: 0x1000075A0, symSize: 0x24 }
  - { offsetInCU: 0xDF8D, offset: 0xDF8D, size: 0x8, addend: 0x0, symName: __ZNKSt3__122__compressed_pair_elemINS_12basic_stringIcNS_11char_traitsIcEENS_9allocatorIcEEE5__repELi0ELb0EE5__getB8ue170006Ev, symObjAddr: 0x5718, symBinAddr: 0x1000075C4, symSize: 0x14 }
  - { offsetInCU: 0xDFB3, offset: 0xDFB3, size: 0x8, addend: 0x0, symName: __ZNSt3__114pointer_traitsIPKcE10pointer_toB8ue170006ERS1_, symObjAddr: 0x572C, symBinAddr: 0x1000075D8, symSize: 0x14 }
  - { offsetInCU: 0xDFD6, offset: 0xDFD6, size: 0x8, addend: 0x0, symName: __ZNSt3__119ostreambuf_iteratorIcNS_11char_traitsIcEEEC2B8ue170006ERNS_13basic_ostreamIcS2_EE, symObjAddr: 0x5740, symBinAddr: 0x1000075EC, symSize: 0x68 }
  - { offsetInCU: 0xE00E, offset: 0xE00E, size: 0x8, addend: 0x0, symName: __ZNKSt3__19basic_iosIcNS_11char_traitsIcEEE5rdbufB8ue170006Ev, symObjAddr: 0x57A8, symBinAddr: 0x100007654, symSize: 0x24 }
  - { offsetInCU: 0xE036, offset: 0xE036, size: 0x8, addend: 0x0, symName: __ZNKSt3__18ios_base5rdbufB8ue170006Ev, symObjAddr: 0x57CC, symBinAddr: 0x100007678, symSize: 0x18 }
  - { offsetInCU: 0xE05C, offset: 0xE05C, size: 0x8, addend: 0x0, symName: __ZNSt3__111char_traitsIcE11eq_int_typeB8ue170006Eii, symObjAddr: 0x57E4, symBinAddr: 0x100007690, symSize: 0x28 }
  - { offsetInCU: 0xE08F, offset: 0xE08F, size: 0x8, addend: 0x0, symName: __ZNSt3__111char_traitsIcE3eofB8ue170006Ev, symObjAddr: 0x580C, symBinAddr: 0x1000076B8, symSize: 0x8 }
  - { offsetInCU: 0xE0A3, offset: 0xE0A3, size: 0x8, addend: 0x0, symName: __ZNKSt3__19basic_iosIcNS_11char_traitsIcEEE5widenB8ue170006Ec, symObjAddr: 0x5814, symBinAddr: 0x1000076C0, symSize: 0x8C }
  - { offsetInCU: 0xE10C, offset: 0xE10C, size: 0x8, addend: 0x0, symName: __ZNKSt3__15ctypeIcE5widenB8ue170006Ec, symObjAddr: 0x58CC, symBinAddr: 0x100007778, symSize: 0x38 }
  - { offsetInCU: 0xE141, offset: 0xE141, size: 0x8, addend: 0x0, symName: __ZNSt3__18ios_base8setstateB8ue170006Ej, symObjAddr: 0x5904, symBinAddr: 0x1000077B0, symSize: 0x34 }
...
